
BrailleKeyboard.elf:     file format elf32-littlearm

Sections:
Idx Name          Size      VMA       LMA       File off  Algn
  0 .isr_vector   0000010c  08000000  08000000  00010000  2**0
                  CONTENTS, ALLOC, LOAD, READONLY, DATA
  1 .text         00002ec0  0800010c  0800010c  0001010c  2**2
                  CONTENTS, ALLOC, LOAD, READONLY, CODE
  2 .rodata       00000064  08002fcc  08002fcc  00012fcc  2**0
                  CONTENTS, ALLOC, LOAD, READONLY, DATA
  3 .ARM.extab    00000000  08003030  08003030  00020164  2**0
                  CONTENTS
  4 .ARM          00000000  08003030  08003030  00020164  2**0
                  CONTENTS
  5 .preinit_array 00000000  08003030  08003030  00020164  2**0
                  CONTENTS, ALLOC, LOAD, DATA
  6 .init_array   00000004  08003030  08003030  00013030  2**2
                  CONTENTS, ALLOC, LOAD, DATA
  7 .fini_array   00000004  08003034  08003034  00013034  2**2
                  CONTENTS, ALLOC, LOAD, DATA
  8 .data         00000164  20000000  08003038  00020000  2**2
                  CONTENTS, ALLOC, LOAD, DATA
  9 .bss          000007ec  20000164  0800319c  00020164  2**2
                  ALLOC
 10 ._user_heap_stack 00000600  20000950  0800319c  00020950  2**0
                  ALLOC
 11 .ARM.attributes 00000029  00000000  00000000  00020164  2**0
                  CONTENTS, READONLY
 12 .comment      00000043  00000000  00000000  0002018d  2**0
                  CONTENTS, READONLY
 13 .debug_frame  0000004c  00000000  00000000  000201d0  2**2
                  CONTENTS, READONLY, DEBUGGING, OCTETS

Disassembly of section .text:

0800010c <__do_global_dtors_aux>:
 800010c:	b510      	push	{r4, lr}
 800010e:	4c05      	ldr	r4, [pc, #20]	; (8000124 <__do_global_dtors_aux+0x18>)
 8000110:	7823      	ldrb	r3, [r4, #0]
 8000112:	b933      	cbnz	r3, 8000122 <__do_global_dtors_aux+0x16>
 8000114:	4b04      	ldr	r3, [pc, #16]	; (8000128 <__do_global_dtors_aux+0x1c>)
 8000116:	b113      	cbz	r3, 800011e <__do_global_dtors_aux+0x12>
 8000118:	4804      	ldr	r0, [pc, #16]	; (800012c <__do_global_dtors_aux+0x20>)
 800011a:	f3af 8000 	nop.w
 800011e:	2301      	movs	r3, #1
 8000120:	7023      	strb	r3, [r4, #0]
 8000122:	bd10      	pop	{r4, pc}
 8000124:	20000164 	.word	0x20000164
 8000128:	00000000 	.word	0x00000000
 800012c:	08002fb4 	.word	0x08002fb4

08000130 <frame_dummy>:
 8000130:	b508      	push	{r3, lr}
 8000132:	4b03      	ldr	r3, [pc, #12]	; (8000140 <frame_dummy+0x10>)
 8000134:	b11b      	cbz	r3, 800013e <frame_dummy+0xe>
 8000136:	4903      	ldr	r1, [pc, #12]	; (8000144 <frame_dummy+0x14>)
 8000138:	4803      	ldr	r0, [pc, #12]	; (8000148 <frame_dummy+0x18>)
 800013a:	f3af 8000 	nop.w
 800013e:	bd08      	pop	{r3, pc}
 8000140:	00000000 	.word	0x00000000
 8000144:	20000168 	.word	0x20000168
 8000148:	08002fb4 	.word	0x08002fb4

0800014c <SystemClock_Config>:
 800014c:	b570      	push	{r4, r5, r6, lr}
 800014e:	b094      	sub	sp, #80	; 0x50
 8000150:	2214      	movs	r2, #20
 8000152:	2100      	movs	r1, #0
 8000154:	a80c      	add	r0, sp, #48	; 0x30
 8000156:	f002 ff01 	bl	8002f5c <memset>
 800015a:	2214      	movs	r2, #20
 800015c:	2510      	movs	r5, #16
 800015e:	2100      	movs	r1, #0
 8000160:	eb0d 0002 	add.w	r0, sp, r2
 8000164:	f002 fefa 	bl	8002f5c <memset>
 8000168:	462a      	mov	r2, r5
 800016a:	2100      	movs	r1, #0
 800016c:	a801      	add	r0, sp, #4
 800016e:	f002 fef5 	bl	8002f5c <memset>
 8000172:	2401      	movs	r4, #1
 8000174:	f44f 3380 	mov.w	r3, #65536	; 0x10000
 8000178:	2602      	movs	r6, #2
 800017a:	e9cd 430a 	strd	r4, r3, [sp, #40]	; 0x28
 800017e:	e9cd 6311 	strd	r6, r3, [sp, #68]	; 0x44
 8000182:	f44f 1380 	mov.w	r3, #1048576	; 0x100000
 8000186:	a80a      	add	r0, sp, #40	; 0x28
 8000188:	940e      	str	r4, [sp, #56]	; 0x38
 800018a:	9313      	str	r3, [sp, #76]	; 0x4c
 800018c:	f001 f91c 	bl	80013c8 <HAL_RCC_OscConfig>
 8000190:	b108      	cbz	r0, 8000196 <SystemClock_Config+0x4a>
 8000192:	b672      	cpsid	i
 8000194:	e7fe      	b.n	8000194 <SystemClock_Config+0x48>
 8000196:	230f      	movs	r3, #15
 8000198:	e9cd 3605 	strd	r3, r6, [sp, #20]
 800019c:	f44f 6380 	mov.w	r3, #1024	; 0x400
 80001a0:	9007      	str	r0, [sp, #28]
 80001a2:	e9cd 3008 	strd	r3, r0, [sp, #32]
 80001a6:	4621      	mov	r1, r4
 80001a8:	a805      	add	r0, sp, #20
 80001aa:	f001 facf 	bl	800174c <HAL_RCC_ClockConfig>
 80001ae:	b108      	cbz	r0, 80001b4 <SystemClock_Config+0x68>
 80001b0:	b672      	cpsid	i
 80001b2:	e7fe      	b.n	80001b2 <SystemClock_Config+0x66>
 80001b4:	f44f 0380 	mov.w	r3, #4194304	; 0x400000
 80001b8:	a801      	add	r0, sp, #4
 80001ba:	9501      	str	r5, [sp, #4]
 80001bc:	9304      	str	r3, [sp, #16]
 80001be:	f001 fb61 	bl	8001884 <HAL_RCCEx_PeriphCLKConfig>
 80001c2:	b108      	cbz	r0, 80001c8 <SystemClock_Config+0x7c>
 80001c4:	b672      	cpsid	i
 80001c6:	e7fe      	b.n	80001c6 <SystemClock_Config+0x7a>
 80001c8:	b014      	add	sp, #80	; 0x50
 80001ca:	bd70      	pop	{r4, r5, r6, pc}

080001cc <main>:
 80001cc:	b500      	push	{lr}
 80001ce:	b089      	sub	sp, #36	; 0x24
 80001d0:	f000 f8ee 	bl	80003b0 <HAL_Init>
 80001d4:	f7ff ffba 	bl	800014c <SystemClock_Config>
 80001d8:	2210      	movs	r2, #16
 80001da:	2100      	movs	r1, #0
 80001dc:	eb0d 0002 	add.w	r0, sp, r2
 80001e0:	f002 febc 	bl	8002f5c <memset>
 80001e4:	4b2e      	ldr	r3, [pc, #184]	; (80002a0 <main+0xd4>)
 80001e6:	f44f 5100 	mov.w	r1, #8192	; 0x2000
 80001ea:	699a      	ldr	r2, [r3, #24]
 80001ec:	482d      	ldr	r0, [pc, #180]	; (80002a4 <main+0xd8>)
 80001ee:	f042 0210 	orr.w	r2, r2, #16
 80001f2:	619a      	str	r2, [r3, #24]
 80001f4:	699a      	ldr	r2, [r3, #24]
 80001f6:	2400      	movs	r4, #0
 80001f8:	f002 0210 	and.w	r2, r2, #16
 80001fc:	9200      	str	r2, [sp, #0]
 80001fe:	9a00      	ldr	r2, [sp, #0]
 8000200:	699a      	ldr	r2, [r3, #24]
 8000202:	2501      	movs	r5, #1
 8000204:	f042 0220 	orr.w	r2, r2, #32
 8000208:	619a      	str	r2, [r3, #24]
 800020a:	699a      	ldr	r2, [r3, #24]
 800020c:	2602      	movs	r6, #2
 800020e:	f002 0220 	and.w	r2, r2, #32
 8000212:	9201      	str	r2, [sp, #4]
 8000214:	9a01      	ldr	r2, [sp, #4]
 8000216:	699a      	ldr	r2, [r3, #24]
 8000218:	f042 0204 	orr.w	r2, r2, #4
 800021c:	619a      	str	r2, [r3, #24]
 800021e:	699a      	ldr	r2, [r3, #24]
 8000220:	f002 0204 	and.w	r2, r2, #4
 8000224:	9202      	str	r2, [sp, #8]
 8000226:	9a02      	ldr	r2, [sp, #8]
 8000228:	699a      	ldr	r2, [r3, #24]
 800022a:	f042 0208 	orr.w	r2, r2, #8
 800022e:	619a      	str	r2, [r3, #24]
 8000230:	699b      	ldr	r3, [r3, #24]
 8000232:	2200      	movs	r2, #0
 8000234:	f003 0308 	and.w	r3, r3, #8
 8000238:	9303      	str	r3, [sp, #12]
 800023a:	9b03      	ldr	r3, [sp, #12]
 800023c:	f000 fa2c 	bl	8000698 <HAL_GPIO_WritePin>
 8000240:	2200      	movs	r2, #0
 8000242:	2103      	movs	r1, #3
 8000244:	4818      	ldr	r0, [pc, #96]	; (80002a8 <main+0xdc>)
 8000246:	f000 fa27 	bl	8000698 <HAL_GPIO_WritePin>
 800024a:	f44f 5300 	mov.w	r3, #8192	; 0x2000
 800024e:	4815      	ldr	r0, [pc, #84]	; (80002a4 <main+0xd8>)
 8000250:	a904      	add	r1, sp, #16
 8000252:	e9cd 3504 	strd	r3, r5, [sp, #16]
 8000256:	e9cd 4606 	strd	r4, r6, [sp, #24]
 800025a:	f000 f943 	bl	80004e4 <HAL_GPIO_Init>
 800025e:	23ff      	movs	r3, #255	; 0xff
 8000260:	4812      	ldr	r0, [pc, #72]	; (80002ac <main+0xe0>)
 8000262:	a904      	add	r1, sp, #16
 8000264:	e9cd 3404 	strd	r3, r4, [sp, #16]
 8000268:	9506      	str	r5, [sp, #24]
 800026a:	f000 f93b 	bl	80004e4 <HAL_GPIO_Init>
 800026e:	2303      	movs	r3, #3
 8000270:	480d      	ldr	r0, [pc, #52]	; (80002a8 <main+0xdc>)
 8000272:	a904      	add	r1, sp, #16
 8000274:	e9cd 3504 	strd	r3, r5, [sp, #16]
 8000278:	e9cd 4606 	strd	r4, r6, [sp, #24]
 800027c:	f000 f932 	bl	80004e4 <HAL_GPIO_Init>
 8000280:	f002 fcd4 	bl	8002c2c <MX_USB_DEVICE_Init>
 8000284:	f104 4480 	add.w	r4, r4, #1073741824	; 0x40000000
 8000288:	f504 3488 	add.w	r4, r4, #69632	; 0x11000
 800028c:	4620      	mov	r0, r4
 800028e:	f44f 5100 	mov.w	r1, #8192	; 0x2000
 8000292:	f000 fa06 	bl	80006a2 <HAL_GPIO_TogglePin>
 8000296:	f44f 7096 	mov.w	r0, #300	; 0x12c
 800029a:	f000 f8ad 	bl	80003f8 <HAL_Delay>
 800029e:	e7f5      	b.n	800028c <main+0xc0>
 80002a0:	40021000 	.word	0x40021000
 80002a4:	40011000 	.word	0x40011000
 80002a8:	40010c00 	.word	0x40010c00
 80002ac:	40010800 	.word	0x40010800

080002b0 <Error_Handler>:
 80002b0:	b672      	cpsid	i
 80002b2:	e7fe      	b.n	80002b2 <Error_Handler+0x2>

080002b4 <HAL_MspInit>:
 80002b4:	4b0e      	ldr	r3, [pc, #56]	; (80002f0 <HAL_MspInit+0x3c>)
 80002b6:	b082      	sub	sp, #8
 80002b8:	699a      	ldr	r2, [r3, #24]
 80002ba:	f042 0201 	orr.w	r2, r2, #1
 80002be:	619a      	str	r2, [r3, #24]
 80002c0:	699a      	ldr	r2, [r3, #24]
 80002c2:	f002 0201 	and.w	r2, r2, #1
 80002c6:	9200      	str	r2, [sp, #0]
 80002c8:	9a00      	ldr	r2, [sp, #0]
 80002ca:	69da      	ldr	r2, [r3, #28]
 80002cc:	f042 5280 	orr.w	r2, r2, #268435456	; 0x10000000
 80002d0:	61da      	str	r2, [r3, #28]
 80002d2:	69db      	ldr	r3, [r3, #28]
 80002d4:	4a07      	ldr	r2, [pc, #28]	; (80002f4 <HAL_MspInit+0x40>)
 80002d6:	f003 5380 	and.w	r3, r3, #268435456	; 0x10000000
 80002da:	9301      	str	r3, [sp, #4]
 80002dc:	9b01      	ldr	r3, [sp, #4]
 80002de:	6853      	ldr	r3, [r2, #4]
 80002e0:	f023 63e0 	bic.w	r3, r3, #117440512	; 0x7000000
 80002e4:	f043 7300 	orr.w	r3, r3, #33554432	; 0x2000000
 80002e8:	6053      	str	r3, [r2, #4]
 80002ea:	b002      	add	sp, #8
 80002ec:	4770      	bx	lr
 80002ee:	bf00      	nop
 80002f0:	40021000 	.word	0x40021000
 80002f4:	40010000 	.word	0x40010000

080002f8 <NMI_Handler>:
 80002f8:	e7fe      	b.n	80002f8 <NMI_Handler>

080002fa <HardFault_Handler>:
 80002fa:	e7fe      	b.n	80002fa <HardFault_Handler>

080002fc <MemManage_Handler>:
 80002fc:	e7fe      	b.n	80002fc <MemManage_Handler>

080002fe <BusFault_Handler>:
 80002fe:	e7fe      	b.n	80002fe <BusFault_Handler>

08000300 <UsageFault_Handler>:
 8000300:	e7fe      	b.n	8000300 <UsageFault_Handler>

08000302 <SVC_Handler>:
 8000302:	4770      	bx	lr

08000304 <DebugMon_Handler>:
 8000304:	4770      	bx	lr

08000306 <PendSV_Handler>:
 8000306:	4770      	bx	lr

08000308 <SysTick_Handler>:
 8000308:	f000 b864 	b.w	80003d4 <HAL_IncTick>

0800030c <USB_LP_CAN1_RX0_IRQHandler>:
 800030c:	4801      	ldr	r0, [pc, #4]	; (8000314 <USB_LP_CAN1_RX0_IRQHandler+0x8>)
 800030e:	f000 ba77 	b.w	8000800 <HAL_PCD_IRQHandler>
 8000312:	bf00      	nop
 8000314:	2000064c 	.word	0x2000064c

08000318 <SystemInit>:
 8000318:	4770      	bx	lr
	...

0800031c <Reset_Handler>:
 800031c:	f7ff fffc 	bl	8000318 <SystemInit>
 8000320:	480b      	ldr	r0, [pc, #44]	; (8000350 <LoopFillZerobss+0xe>)
 8000322:	490c      	ldr	r1, [pc, #48]	; (8000354 <LoopFillZerobss+0x12>)
 8000324:	4a0c      	ldr	r2, [pc, #48]	; (8000358 <LoopFillZerobss+0x16>)
 8000326:	2300      	movs	r3, #0
 8000328:	e002      	b.n	8000330 <LoopCopyDataInit>

0800032a <CopyDataInit>:
 800032a:	58d4      	ldr	r4, [r2, r3]
 800032c:	50c4      	str	r4, [r0, r3]
 800032e:	3304      	adds	r3, #4

08000330 <LoopCopyDataInit>:
 8000330:	18c4      	adds	r4, r0, r3
 8000332:	428c      	cmp	r4, r1
 8000334:	d3f9      	bcc.n	800032a <CopyDataInit>
 8000336:	4a09      	ldr	r2, [pc, #36]	; (800035c <LoopFillZerobss+0x1a>)
 8000338:	4c09      	ldr	r4, [pc, #36]	; (8000360 <LoopFillZerobss+0x1e>)
 800033a:	2300      	movs	r3, #0
 800033c:	e001      	b.n	8000342 <LoopFillZerobss>

0800033e <FillZerobss>:
 800033e:	6013      	str	r3, [r2, #0]
 8000340:	3204      	adds	r2, #4

08000342 <LoopFillZerobss>:
 8000342:	42a2      	cmp	r2, r4
 8000344:	d3fb      	bcc.n	800033e <FillZerobss>
 8000346:	f002 fe11 	bl	8002f6c <__libc_init_array>
 800034a:	f7ff ff3f 	bl	80001cc <main>
 800034e:	4770      	bx	lr
 8000350:	20000000 	.word	0x20000000
 8000354:	20000164 	.word	0x20000164
 8000358:	08003038 	.word	0x08003038
 800035c:	20000164 	.word	0x20000164
 8000360:	20000950 	.word	0x20000950

08000364 <ADC1_2_IRQHandler>:
 8000364:	e7fe      	b.n	8000364 <ADC1_2_IRQHandler>
	...

08000368 <HAL_InitTick>:
 8000368:	b538      	push	{r3, r4, r5, lr}
 800036a:	4b0e      	ldr	r3, [pc, #56]	; (80003a4 <HAL_InitTick+0x3c>)
 800036c:	4605      	mov	r5, r0
 800036e:	781a      	ldrb	r2, [r3, #0]
 8000370:	f44f 737a 	mov.w	r3, #1000	; 0x3e8
 8000374:	fbb3 f3f2 	udiv	r3, r3, r2
 8000378:	4a0b      	ldr	r2, [pc, #44]	; (80003a8 <HAL_InitTick+0x40>)
 800037a:	6810      	ldr	r0, [r2, #0]
 800037c:	fbb0 f0f3 	udiv	r0, r0, r3
 8000380:	f000 f89c 	bl	80004bc <HAL_SYSTICK_Config>
 8000384:	4604      	mov	r4, r0
 8000386:	b958      	cbnz	r0, 80003a0 <HAL_InitTick+0x38>
 8000388:	2d0f      	cmp	r5, #15
 800038a:	d809      	bhi.n	80003a0 <HAL_InitTick+0x38>
 800038c:	4602      	mov	r2, r0
 800038e:	4629      	mov	r1, r5
 8000390:	f04f 30ff 	mov.w	r0, #4294967295
 8000394:	f000 f854 	bl	8000440 <HAL_NVIC_SetPriority>
 8000398:	4620      	mov	r0, r4
 800039a:	4b04      	ldr	r3, [pc, #16]	; (80003ac <HAL_InitTick+0x44>)
 800039c:	601d      	str	r5, [r3, #0]
 800039e:	bd38      	pop	{r3, r4, r5, pc}
 80003a0:	2001      	movs	r0, #1
 80003a2:	e7fc      	b.n	800039e <HAL_InitTick+0x36>
 80003a4:	20000004 	.word	0x20000004
 80003a8:	20000000 	.word	0x20000000
 80003ac:	20000008 	.word	0x20000008

080003b0 <HAL_Init>:
 80003b0:	4a07      	ldr	r2, [pc, #28]	; (80003d0 <HAL_Init+0x20>)
 80003b2:	b508      	push	{r3, lr}
 80003b4:	6813      	ldr	r3, [r2, #0]
 80003b6:	2003      	movs	r0, #3
 80003b8:	f043 0310 	orr.w	r3, r3, #16
 80003bc:	6013      	str	r3, [r2, #0]
 80003be:	f000 f82d 	bl	800041c <HAL_NVIC_SetPriorityGrouping>
 80003c2:	200f      	movs	r0, #15
 80003c4:	f7ff ffd0 	bl	8000368 <HAL_InitTick>
 80003c8:	f7ff ff74 	bl	80002b4 <HAL_MspInit>
 80003cc:	2000      	movs	r0, #0
 80003ce:	bd08      	pop	{r3, pc}
 80003d0:	40022000 	.word	0x40022000

080003d4 <HAL_IncTick>:
 80003d4:	4a03      	ldr	r2, [pc, #12]	; (80003e4 <HAL_IncTick+0x10>)
 80003d6:	4b04      	ldr	r3, [pc, #16]	; (80003e8 <HAL_IncTick+0x14>)
 80003d8:	6811      	ldr	r1, [r2, #0]
 80003da:	781b      	ldrb	r3, [r3, #0]
 80003dc:	440b      	add	r3, r1
 80003de:	6013      	str	r3, [r2, #0]
 80003e0:	4770      	bx	lr
 80003e2:	bf00      	nop
 80003e4:	20000180 	.word	0x20000180
 80003e8:	20000004 	.word	0x20000004

080003ec <HAL_GetTick>:
 80003ec:	4b01      	ldr	r3, [pc, #4]	; (80003f4 <HAL_GetTick+0x8>)
 80003ee:	6818      	ldr	r0, [r3, #0]
 80003f0:	4770      	bx	lr
 80003f2:	bf00      	nop
 80003f4:	20000180 	.word	0x20000180

080003f8 <HAL_Delay>:
 80003f8:	b538      	push	{r3, r4, r5, lr}
 80003fa:	4604      	mov	r4, r0
 80003fc:	f7ff fff6 	bl	80003ec <HAL_GetTick>
 8000400:	4605      	mov	r5, r0
 8000402:	1c63      	adds	r3, r4, #1
 8000404:	bf1e      	ittt	ne
 8000406:	4b04      	ldrne	r3, [pc, #16]	; (8000418 <HAL_Delay+0x20>)
 8000408:	781b      	ldrbne	r3, [r3, #0]
 800040a:	18e4      	addne	r4, r4, r3
 800040c:	f7ff ffee 	bl	80003ec <HAL_GetTick>
 8000410:	1b43      	subs	r3, r0, r5
 8000412:	42a3      	cmp	r3, r4
 8000414:	d3fa      	bcc.n	800040c <HAL_Delay+0x14>
 8000416:	bd38      	pop	{r3, r4, r5, pc}
 8000418:	20000004 	.word	0x20000004

0800041c <HAL_NVIC_SetPriorityGrouping>:
 800041c:	4907      	ldr	r1, [pc, #28]	; (800043c <HAL_NVIC_SetPriorityGrouping+0x20>)
 800041e:	0203      	lsls	r3, r0, #8
 8000420:	68ca      	ldr	r2, [r1, #12]
 8000422:	f403 63e0 	and.w	r3, r3, #1792	; 0x700
 8000426:	f422 62e0 	bic.w	r2, r2, #1792	; 0x700
 800042a:	0412      	lsls	r2, r2, #16
 800042c:	0c12      	lsrs	r2, r2, #16
 800042e:	4313      	orrs	r3, r2
 8000430:	f043 63bf 	orr.w	r3, r3, #100139008	; 0x5f80000
 8000434:	f443 3300 	orr.w	r3, r3, #131072	; 0x20000
 8000438:	60cb      	str	r3, [r1, #12]
 800043a:	4770      	bx	lr
 800043c:	e000ed00 	.word	0xe000ed00

08000440 <HAL_NVIC_SetPriority>:
 8000440:	4b15      	ldr	r3, [pc, #84]	; (8000498 <HAL_NVIC_SetPriority+0x58>)
 8000442:	b530      	push	{r4, r5, lr}
 8000444:	68dc      	ldr	r4, [r3, #12]
 8000446:	f3c4 2402 	ubfx	r4, r4, #8, #3
 800044a:	f1c4 0307 	rsb	r3, r4, #7
 800044e:	1d25      	adds	r5, r4, #4
 8000450:	2b04      	cmp	r3, #4
 8000452:	bf28      	it	cs
 8000454:	2304      	movcs	r3, #4
 8000456:	2d06      	cmp	r5, #6
 8000458:	f04f 35ff 	mov.w	r5, #4294967295
 800045c:	bf94      	ite	ls
 800045e:	2400      	movls	r4, #0
 8000460:	3c03      	subhi	r4, #3
 8000462:	fa05 f303 	lsl.w	r3, r5, r3
 8000466:	ea21 0303 	bic.w	r3, r1, r3
 800046a:	40a5      	lsls	r5, r4
 800046c:	ea22 0205 	bic.w	r2, r2, r5
 8000470:	40a3      	lsls	r3, r4
 8000472:	2800      	cmp	r0, #0
 8000474:	ea43 0302 	orr.w	r3, r3, r2
 8000478:	bfac      	ite	ge
 800047a:	f100 4060 	addge.w	r0, r0, #3758096384	; 0xe0000000
 800047e:	4a07      	ldrlt	r2, [pc, #28]	; (800049c <HAL_NVIC_SetPriority+0x5c>)
 8000480:	ea4f 1303 	mov.w	r3, r3, lsl #4
 8000484:	b2db      	uxtb	r3, r3
 8000486:	bfab      	itete	ge
 8000488:	f500 4061 	addge.w	r0, r0, #57600	; 0xe100
 800048c:	f000 000f 	andlt.w	r0, r0, #15
 8000490:	f880 3300 	strbge.w	r3, [r0, #768]	; 0x300
 8000494:	5413      	strblt	r3, [r2, r0]
 8000496:	bd30      	pop	{r4, r5, pc}
 8000498:	e000ed00 	.word	0xe000ed00
 800049c:	e000ed14 	.word	0xe000ed14

080004a0 <HAL_NVIC_EnableIRQ>:
 80004a0:	2800      	cmp	r0, #0
 80004a2:	db07      	blt.n	80004b4 <HAL_NVIC_EnableIRQ+0x14>
 80004a4:	2301      	movs	r3, #1
 80004a6:	0941      	lsrs	r1, r0, #5
 80004a8:	4a03      	ldr	r2, [pc, #12]	; (80004b8 <HAL_NVIC_EnableIRQ+0x18>)
 80004aa:	f000 001f 	and.w	r0, r0, #31
 80004ae:	4083      	lsls	r3, r0
 80004b0:	f842 3021 	str.w	r3, [r2, r1, lsl #2]
 80004b4:	4770      	bx	lr
 80004b6:	bf00      	nop
 80004b8:	e000e100 	.word	0xe000e100

080004bc <HAL_SYSTICK_Config>:
 80004bc:	3801      	subs	r0, #1
 80004be:	f1b0 7f80 	cmp.w	r0, #16777216	; 0x1000000
 80004c2:	d20b      	bcs.n	80004dc <HAL_SYSTICK_Config+0x20>
 80004c4:	f04f 23e0 	mov.w	r3, #3758153728	; 0xe000e000
 80004c8:	21f0      	movs	r1, #240	; 0xf0
 80004ca:	4a05      	ldr	r2, [pc, #20]	; (80004e0 <HAL_SYSTICK_Config+0x24>)
 80004cc:	6158      	str	r0, [r3, #20]
 80004ce:	f882 1023 	strb.w	r1, [r2, #35]	; 0x23
 80004d2:	2000      	movs	r0, #0
 80004d4:	2207      	movs	r2, #7
 80004d6:	6198      	str	r0, [r3, #24]
 80004d8:	611a      	str	r2, [r3, #16]
 80004da:	4770      	bx	lr
 80004dc:	2001      	movs	r0, #1
 80004de:	4770      	bx	lr
 80004e0:	e000ed00 	.word	0xe000ed00

080004e4 <HAL_GPIO_Init>:
 80004e4:	e92d 4ff7 	stmdb	sp!, {r0, r1, r2, r4, r5, r6, r7, r8, r9, sl, fp, lr}
 80004e8:	2200      	movs	r2, #0
 80004ea:	4616      	mov	r6, r2
 80004ec:	4f64      	ldr	r7, [pc, #400]	; (8000680 <HAL_GPIO_Init+0x19c>)
 80004ee:	4b65      	ldr	r3, [pc, #404]	; (8000684 <HAL_GPIO_Init+0x1a0>)
 80004f0:	f8df c194 	ldr.w	ip, [pc, #404]	; 8000688 <HAL_GPIO_Init+0x1a4>
 80004f4:	f8df e194 	ldr.w	lr, [pc, #404]	; 800068c <HAL_GPIO_Init+0x1a8>
 80004f8:	680d      	ldr	r5, [r1, #0]
 80004fa:	fa35 f406 	lsrs.w	r4, r5, r6
 80004fe:	d102      	bne.n	8000506 <HAL_GPIO_Init+0x22>
 8000500:	b003      	add	sp, #12
 8000502:	e8bd 8ff0 	ldmia.w	sp!, {r4, r5, r6, r7, r8, r9, sl, fp, pc}
 8000506:	f04f 0801 	mov.w	r8, #1
 800050a:	fa08 f806 	lsl.w	r8, r8, r6
 800050e:	ea05 0408 	and.w	r4, r5, r8
 8000512:	ea38 0505 	bics.w	r5, r8, r5
 8000516:	d17a      	bne.n	800060e <HAL_GPIO_Init+0x12a>
 8000518:	684d      	ldr	r5, [r1, #4]
 800051a:	2d03      	cmp	r5, #3
 800051c:	d807      	bhi.n	800052e <HAL_GPIO_Init+0x4a>
 800051e:	3d01      	subs	r5, #1
 8000520:	2d02      	cmp	r5, #2
 8000522:	f200 8087 	bhi.w	8000634 <HAL_GPIO_Init+0x150>
 8000526:	e8df f005 	tbb	[pc, r5]
 800052a:	9a95      	.short	0x9a95
 800052c:	a0          	.byte	0xa0
 800052d:	00          	.byte	0x00
 800052e:	2d12      	cmp	r5, #18
 8000530:	f000 8098 	beq.w	8000664 <HAL_GPIO_Init+0x180>
 8000534:	d86d      	bhi.n	8000612 <HAL_GPIO_Init+0x12e>
 8000536:	2d11      	cmp	r5, #17
 8000538:	f000 808e 	beq.w	8000658 <HAL_GPIO_Init+0x174>
 800053c:	2cff      	cmp	r4, #255	; 0xff
 800053e:	bf98      	it	ls
 8000540:	4682      	movls	sl, r0
 8000542:	f04f 090f 	mov.w	r9, #15
 8000546:	bf88      	it	hi
 8000548:	f100 0a04 	addhi.w	sl, r0, #4
 800054c:	ea4f 0586 	mov.w	r5, r6, lsl #2
 8000550:	f8da 8000 	ldr.w	r8, [sl]
 8000554:	bf88      	it	hi
 8000556:	3d20      	subhi	r5, #32
 8000558:	fa09 fb05 	lsl.w	fp, r9, r5
 800055c:	ea28 080b 	bic.w	r8, r8, fp
 8000560:	fa02 f505 	lsl.w	r5, r2, r5
 8000564:	ea48 0505 	orr.w	r5, r8, r5
 8000568:	f8ca 5000 	str.w	r5, [sl]
 800056c:	f8d1 a004 	ldr.w	sl, [r1, #4]
 8000570:	f01a 5f80 	tst.w	sl, #268435456	; 0x10000000
 8000574:	d04b      	beq.n	800060e <HAL_GPIO_Init+0x12a>
 8000576:	69bd      	ldr	r5, [r7, #24]
 8000578:	f026 0803 	bic.w	r8, r6, #3
 800057c:	f045 0501 	orr.w	r5, r5, #1
 8000580:	61bd      	str	r5, [r7, #24]
 8000582:	69bd      	ldr	r5, [r7, #24]
 8000584:	f108 4880 	add.w	r8, r8, #1073741824	; 0x40000000
 8000588:	f005 0501 	and.w	r5, r5, #1
 800058c:	9501      	str	r5, [sp, #4]
 800058e:	f508 3880 	add.w	r8, r8, #65536	; 0x10000
 8000592:	f006 0b03 	and.w	fp, r6, #3
 8000596:	9d01      	ldr	r5, [sp, #4]
 8000598:	ea4f 0b8b 	mov.w	fp, fp, lsl #2
 800059c:	f8d8 5008 	ldr.w	r5, [r8, #8]
 80005a0:	fa09 f90b 	lsl.w	r9, r9, fp
 80005a4:	ea25 0909 	bic.w	r9, r5, r9
 80005a8:	4d39      	ldr	r5, [pc, #228]	; (8000690 <HAL_GPIO_Init+0x1ac>)
 80005aa:	42a8      	cmp	r0, r5
 80005ac:	d061      	beq.n	8000672 <HAL_GPIO_Init+0x18e>
 80005ae:	f505 6580 	add.w	r5, r5, #1024	; 0x400
 80005b2:	42a8      	cmp	r0, r5
 80005b4:	d05f      	beq.n	8000676 <HAL_GPIO_Init+0x192>
 80005b6:	f505 6580 	add.w	r5, r5, #1024	; 0x400
 80005ba:	42a8      	cmp	r0, r5
 80005bc:	d05d      	beq.n	800067a <HAL_GPIO_Init+0x196>
 80005be:	f505 6580 	add.w	r5, r5, #1024	; 0x400
 80005c2:	42a8      	cmp	r0, r5
 80005c4:	bf0c      	ite	eq
 80005c6:	2503      	moveq	r5, #3
 80005c8:	2504      	movne	r5, #4
 80005ca:	fa05 f50b 	lsl.w	r5, r5, fp
 80005ce:	ea45 0509 	orr.w	r5, r5, r9
 80005d2:	f8c8 5008 	str.w	r5, [r8, #8]
 80005d6:	689d      	ldr	r5, [r3, #8]
 80005d8:	f41a 1f80 	tst.w	sl, #1048576	; 0x100000
 80005dc:	bf14      	ite	ne
 80005de:	4325      	orrne	r5, r4
 80005e0:	43a5      	biceq	r5, r4
 80005e2:	609d      	str	r5, [r3, #8]
 80005e4:	68dd      	ldr	r5, [r3, #12]
 80005e6:	f41a 1f00 	tst.w	sl, #2097152	; 0x200000
 80005ea:	bf14      	ite	ne
 80005ec:	4325      	orrne	r5, r4
 80005ee:	43a5      	biceq	r5, r4
 80005f0:	60dd      	str	r5, [r3, #12]
 80005f2:	685d      	ldr	r5, [r3, #4]
 80005f4:	f41a 3f00 	tst.w	sl, #131072	; 0x20000
 80005f8:	bf14      	ite	ne
 80005fa:	4325      	orrne	r5, r4
 80005fc:	43a5      	biceq	r5, r4
 80005fe:	605d      	str	r5, [r3, #4]
 8000600:	681d      	ldr	r5, [r3, #0]
 8000602:	f41a 3f80 	tst.w	sl, #65536	; 0x10000
 8000606:	bf14      	ite	ne
 8000608:	4325      	orrne	r5, r4
 800060a:	43a5      	biceq	r5, r4
 800060c:	601d      	str	r5, [r3, #0]
 800060e:	3601      	adds	r6, #1
 8000610:	e772      	b.n	80004f8 <HAL_GPIO_Init+0x14>
 8000612:	f8df 9080 	ldr.w	r9, [pc, #128]	; 8000694 <HAL_GPIO_Init+0x1b0>
 8000616:	454d      	cmp	r5, r9
 8000618:	d00c      	beq.n	8000634 <HAL_GPIO_Init+0x150>
 800061a:	d817      	bhi.n	800064c <HAL_GPIO_Init+0x168>
 800061c:	f5a9 1980 	sub.w	r9, r9, #1048576	; 0x100000
 8000620:	454d      	cmp	r5, r9
 8000622:	d007      	beq.n	8000634 <HAL_GPIO_Init+0x150>
 8000624:	f509 2970 	add.w	r9, r9, #983040	; 0xf0000
 8000628:	454d      	cmp	r5, r9
 800062a:	d003      	beq.n	8000634 <HAL_GPIO_Init+0x150>
 800062c:	f5a9 1980 	sub.w	r9, r9, #1048576	; 0x100000
 8000630:	454d      	cmp	r5, r9
 8000632:	d183      	bne.n	800053c <HAL_GPIO_Init+0x58>
 8000634:	688a      	ldr	r2, [r1, #8]
 8000636:	b1d2      	cbz	r2, 800066e <HAL_GPIO_Init+0x18a>
 8000638:	2a01      	cmp	r2, #1
 800063a:	bf08      	it	eq
 800063c:	f8c0 8010 	streq.w	r8, [r0, #16]
 8000640:	f04f 0208 	mov.w	r2, #8
 8000644:	bf18      	it	ne
 8000646:	f8c0 8014 	strne.w	r8, [r0, #20]
 800064a:	e777      	b.n	800053c <HAL_GPIO_Init+0x58>
 800064c:	4565      	cmp	r5, ip
 800064e:	d0f1      	beq.n	8000634 <HAL_GPIO_Init+0x150>
 8000650:	4575      	cmp	r5, lr
 8000652:	e7ee      	b.n	8000632 <HAL_GPIO_Init+0x14e>
 8000654:	68ca      	ldr	r2, [r1, #12]
 8000656:	e771      	b.n	800053c <HAL_GPIO_Init+0x58>
 8000658:	68ca      	ldr	r2, [r1, #12]
 800065a:	3204      	adds	r2, #4
 800065c:	e76e      	b.n	800053c <HAL_GPIO_Init+0x58>
 800065e:	68ca      	ldr	r2, [r1, #12]
 8000660:	3208      	adds	r2, #8
 8000662:	e76b      	b.n	800053c <HAL_GPIO_Init+0x58>
 8000664:	68ca      	ldr	r2, [r1, #12]
 8000666:	320c      	adds	r2, #12
 8000668:	e768      	b.n	800053c <HAL_GPIO_Init+0x58>
 800066a:	2200      	movs	r2, #0
 800066c:	e766      	b.n	800053c <HAL_GPIO_Init+0x58>
 800066e:	2204      	movs	r2, #4
 8000670:	e764      	b.n	800053c <HAL_GPIO_Init+0x58>
 8000672:	2500      	movs	r5, #0
 8000674:	e7a9      	b.n	80005ca <HAL_GPIO_Init+0xe6>
 8000676:	2501      	movs	r5, #1
 8000678:	e7a7      	b.n	80005ca <HAL_GPIO_Init+0xe6>
 800067a:	2502      	movs	r5, #2
 800067c:	e7a5      	b.n	80005ca <HAL_GPIO_Init+0xe6>
 800067e:	bf00      	nop
 8000680:	40021000 	.word	0x40021000
 8000684:	40010400 	.word	0x40010400
 8000688:	10310000 	.word	0x10310000
 800068c:	10320000 	.word	0x10320000
 8000690:	40010800 	.word	0x40010800
 8000694:	10220000 	.word	0x10220000

08000698 <HAL_GPIO_WritePin>:
 8000698:	b10a      	cbz	r2, 800069e <HAL_GPIO_WritePin+0x6>
 800069a:	6101      	str	r1, [r0, #16]
 800069c:	4770      	bx	lr
 800069e:	0409      	lsls	r1, r1, #16
 80006a0:	e7fb      	b.n	800069a <HAL_GPIO_WritePin+0x2>

080006a2 <HAL_GPIO_TogglePin>:
 80006a2:	68c3      	ldr	r3, [r0, #12]
 80006a4:	ea01 0203 	and.w	r2, r1, r3
 80006a8:	ea21 0103 	bic.w	r1, r1, r3
 80006ac:	ea41 4102 	orr.w	r1, r1, r2, lsl #16
 80006b0:	6101      	str	r1, [r0, #16]
 80006b2:	4770      	bx	lr

080006b4 <HAL_PCD_Init>:
 80006b4:	b5f0      	push	{r4, r5, r6, r7, lr}
 80006b6:	4604      	mov	r4, r0
 80006b8:	b087      	sub	sp, #28
 80006ba:	b310      	cbz	r0, 8000702 <HAL_PCD_Init+0x4e>
 80006bc:	f890 32a9 	ldrb.w	r3, [r0, #681]	; 0x2a9
 80006c0:	f003 02ff 	and.w	r2, r3, #255	; 0xff
 80006c4:	b91b      	cbnz	r3, 80006ce <HAL_PCD_Init+0x1a>
 80006c6:	f880 22a8 	strb.w	r2, [r0, #680]	; 0x2a8
 80006ca:	f002 fb4f 	bl	8002d6c <HAL_PCD_MspInit>
 80006ce:	2303      	movs	r3, #3
 80006d0:	4625      	mov	r5, r4
 80006d2:	466e      	mov	r6, sp
 80006d4:	f884 32a9 	strb.w	r3, [r4, #681]	; 0x2a9
 80006d8:	f855 0b10 	ldr.w	r0, [r5], #16
 80006dc:	f001 f95c 	bl	8001998 <USB_DisableGlobalInt>
 80006e0:	cd0f      	ldmia	r5!, {r0, r1, r2, r3}
 80006e2:	c60f      	stmia	r6!, {r0, r1, r2, r3}
 80006e4:	682b      	ldr	r3, [r5, #0]
 80006e6:	1d27      	adds	r7, r4, #4
 80006e8:	6033      	str	r3, [r6, #0]
 80006ea:	4626      	mov	r6, r4
 80006ec:	e897 000e 	ldmia.w	r7, {r1, r2, r3}
 80006f0:	f856 0b10 	ldr.w	r0, [r6], #16
 80006f4:	f001 f940 	bl	8001978 <USB_CoreInit>
 80006f8:	4605      	mov	r5, r0
 80006fa:	b120      	cbz	r0, 8000706 <HAL_PCD_Init+0x52>
 80006fc:	2302      	movs	r3, #2
 80006fe:	f884 32a9 	strb.w	r3, [r4, #681]	; 0x2a9
 8000702:	2501      	movs	r5, #1
 8000704:	e04b      	b.n	800079e <HAL_PCD_Init+0xea>
 8000706:	4601      	mov	r1, r0
 8000708:	6820      	ldr	r0, [r4, #0]
 800070a:	f001 f94f 	bl	80019ac <USB_SetCurrentMode>
 800070e:	4629      	mov	r1, r5
 8000710:	f04f 0e01 	mov.w	lr, #1
 8000714:	2528      	movs	r5, #40	; 0x28
 8000716:	460a      	mov	r2, r1
 8000718:	f8d4 c004 	ldr.w	ip, [r4, #4]
 800071c:	b2c8      	uxtb	r0, r1
 800071e:	4584      	cmp	ip, r0
 8000720:	f101 0101 	add.w	r1, r1, #1
 8000724:	d81b      	bhi.n	800075e <HAL_PCD_Init+0xaa>
 8000726:	2300      	movs	r3, #0
 8000728:	2528      	movs	r5, #40	; 0x28
 800072a:	4619      	mov	r1, r3
 800072c:	b2d8      	uxtb	r0, r3
 800072e:	4584      	cmp	ip, r0
 8000730:	f103 0301 	add.w	r3, r3, #1
 8000734:	d81f      	bhi.n	8000776 <HAL_PCD_Init+0xc2>
 8000736:	46ec      	mov	ip, sp
 8000738:	4635      	mov	r5, r6
 800073a:	cd0f      	ldmia	r5!, {r0, r1, r2, r3}
 800073c:	e8ac 000f 	stmia.w	ip!, {r0, r1, r2, r3}
 8000740:	682b      	ldr	r3, [r5, #0]
 8000742:	f8cc 3000 	str.w	r3, [ip]
 8000746:	e897 000e 	ldmia.w	r7, {r1, r2, r3}
 800074a:	6820      	ldr	r0, [r4, #0]
 800074c:	f001 f930 	bl	80019b0 <USB_DevInit>
 8000750:	2301      	movs	r3, #1
 8000752:	4605      	mov	r5, r0
 8000754:	b1e0      	cbz	r0, 8000790 <HAL_PCD_Init+0xdc>
 8000756:	2202      	movs	r2, #2
 8000758:	f884 22a9 	strb.w	r2, [r4, #681]	; 0x2a9
 800075c:	e7d1      	b.n	8000702 <HAL_PCD_Init+0x4e>
 800075e:	fb05 4300 	mla	r3, r5, r0, r4
 8000762:	e9c3 220e 	strd	r2, r2, [r3, #56]	; 0x38
 8000766:	f883 e029 	strb.w	lr, [r3, #41]	; 0x29
 800076a:	f883 0028 	strb.w	r0, [r3, #40]	; 0x28
 800076e:	f883 202b 	strb.w	r2, [r3, #43]	; 0x2b
 8000772:	641a      	str	r2, [r3, #64]	; 0x40
 8000774:	e7d2      	b.n	800071c <HAL_PCD_Init+0x68>
 8000776:	fb05 4200 	mla	r2, r5, r0, r4
 800077a:	e9c2 115e 	strd	r1, r1, [r2, #376]	; 0x178
 800077e:	f882 1169 	strb.w	r1, [r2, #361]	; 0x169
 8000782:	f882 0168 	strb.w	r0, [r2, #360]	; 0x168
 8000786:	f882 116b 	strb.w	r1, [r2, #363]	; 0x16b
 800078a:	f8c2 1180 	str.w	r1, [r2, #384]	; 0x180
 800078e:	e7cd      	b.n	800072c <HAL_PCD_Init+0x78>
 8000790:	f884 0024 	strb.w	r0, [r4, #36]	; 0x24
 8000794:	6820      	ldr	r0, [r4, #0]
 8000796:	f884 32a9 	strb.w	r3, [r4, #681]	; 0x2a9
 800079a:	f001 fbc1 	bl	8001f20 <USB_DevDisconnect>
 800079e:	4628      	mov	r0, r5
 80007a0:	b007      	add	sp, #28
 80007a2:	bdf0      	pop	{r4, r5, r6, r7, pc}

080007a4 <HAL_PCD_Start>:
 80007a4:	b538      	push	{r3, r4, r5, lr}
 80007a6:	f890 32a8 	ldrb.w	r3, [r0, #680]	; 0x2a8
 80007aa:	4604      	mov	r4, r0
 80007ac:	2b01      	cmp	r3, #1
 80007ae:	d010      	beq.n	80007d2 <HAL_PCD_Start+0x2e>
 80007b0:	2501      	movs	r5, #1
 80007b2:	f880 52a8 	strb.w	r5, [r0, #680]	; 0x2a8
 80007b6:	6800      	ldr	r0, [r0, #0]
 80007b8:	f001 f8e5 	bl	8001986 <USB_EnableGlobalInt>
 80007bc:	4629      	mov	r1, r5
 80007be:	4620      	mov	r0, r4
 80007c0:	f002 fbcb 	bl	8002f5a <HAL_PCDEx_SetConnectionState>
 80007c4:	6820      	ldr	r0, [r4, #0]
 80007c6:	f001 fba9 	bl	8001f1c <USB_DevConnect>
 80007ca:	2000      	movs	r0, #0
 80007cc:	f884 02a8 	strb.w	r0, [r4, #680]	; 0x2a8
 80007d0:	bd38      	pop	{r3, r4, r5, pc}
 80007d2:	2002      	movs	r0, #2
 80007d4:	e7fc      	b.n	80007d0 <HAL_PCD_Start+0x2c>

080007d6 <HAL_PCD_SetAddress>:
 80007d6:	b510      	push	{r4, lr}
 80007d8:	f890 22a8 	ldrb.w	r2, [r0, #680]	; 0x2a8
 80007dc:	4604      	mov	r4, r0
 80007de:	2a01      	cmp	r2, #1
 80007e0:	d00b      	beq.n	80007fa <HAL_PCD_SetAddress+0x24>
 80007e2:	2201      	movs	r2, #1
 80007e4:	f880 1024 	strb.w	r1, [r0, #36]	; 0x24
 80007e8:	f880 22a8 	strb.w	r2, [r0, #680]	; 0x2a8
 80007ec:	6800      	ldr	r0, [r0, #0]
 80007ee:	f001 fb8f 	bl	8001f10 <USB_SetDevAddress>
 80007f2:	2000      	movs	r0, #0
 80007f4:	f884 02a8 	strb.w	r0, [r4, #680]	; 0x2a8
 80007f8:	bd10      	pop	{r4, pc}
 80007fa:	2002      	movs	r0, #2
 80007fc:	e7fc      	b.n	80007f8 <HAL_PCD_SetAddress+0x22>
	...

08000800 <HAL_PCD_IRQHandler>:
 8000800:	e92d 4ff0 	stmdb	sp!, {r4, r5, r6, r7, r8, r9, sl, fp, lr}
 8000804:	4604      	mov	r4, r0
 8000806:	b085      	sub	sp, #20
 8000808:	6800      	ldr	r0, [r0, #0]
 800080a:	f001 fb8b 	bl	8001f24 <USB_ReadInterrupts>
 800080e:	f410 4500 	ands.w	r5, r0, #32768	; 0x8000
 8000812:	f000 8424 	beq.w	800105e <HAL_PCD_IRQHandler+0x85e>
 8000816:	f8df 931c 	ldr.w	r9, [pc, #796]	; 8000b34 <HAL_PCD_IRQHandler+0x334>
 800081a:	f8df 831c 	ldr.w	r8, [pc, #796]	; 8000b38 <HAL_PCD_IRQHandler+0x338>
 800081e:	6820      	ldr	r0, [r4, #0]
 8000820:	f8b0 3044 	ldrh.w	r3, [r0, #68]	; 0x44
 8000824:	041f      	lsls	r7, r3, #16
 8000826:	d402      	bmi.n	800082e <HAL_PCD_IRQHandler+0x2e>
 8000828:	b005      	add	sp, #20
 800082a:	e8bd 8ff0 	ldmia.w	sp!, {r4, r5, r6, r7, r8, r9, sl, fp, pc}
 800082e:	f8b0 6044 	ldrh.w	r6, [r0, #68]	; 0x44
 8000832:	b2b1      	uxth	r1, r6
 8000834:	f016 060f 	ands.w	r6, r6, #15
 8000838:	f040 80c6 	bne.w	80009c8 <HAL_PCD_IRQHandler+0x1c8>
 800083c:	f011 0110 	ands.w	r1, r1, #16
 8000840:	d12b      	bne.n	800089a <HAL_PCD_IRQHandler+0x9a>
 8000842:	8803      	ldrh	r3, [r0, #0]
 8000844:	b29b      	uxth	r3, r3
 8000846:	ea03 0309 	and.w	r3, r3, r9
 800084a:	f443 4300 	orr.w	r3, r3, #32768	; 0x8000
 800084e:	8003      	strh	r3, [r0, #0]
 8000850:	f8b0 3050 	ldrh.w	r3, [r0, #80]	; 0x50
 8000854:	f894 2028 	ldrb.w	r2, [r4, #40]	; 0x28
 8000858:	b29b      	uxth	r3, r3
 800085a:	eb03 03c2 	add.w	r3, r3, r2, lsl #3
 800085e:	eb00 0343 	add.w	r3, r0, r3, lsl #1
 8000862:	f8b3 3404 	ldrh.w	r3, [r3, #1028]	; 0x404
 8000866:	6be2      	ldr	r2, [r4, #60]	; 0x3c
 8000868:	f3c3 0309 	ubfx	r3, r3, #0, #10
 800086c:	441a      	add	r2, r3
 800086e:	6463      	str	r3, [r4, #68]	; 0x44
 8000870:	4620      	mov	r0, r4
 8000872:	63e2      	str	r2, [r4, #60]	; 0x3c
 8000874:	f002 faa9 	bl	8002dca <HAL_PCD_DataInStageCallback>
 8000878:	f894 3024 	ldrb.w	r3, [r4, #36]	; 0x24
 800087c:	2b00      	cmp	r3, #0
 800087e:	d0ce      	beq.n	800081e <HAL_PCD_IRQHandler+0x1e>
 8000880:	6c22      	ldr	r2, [r4, #64]	; 0x40
 8000882:	6821      	ldr	r1, [r4, #0]
 8000884:	2a00      	cmp	r2, #0
 8000886:	d1ca      	bne.n	800081e <HAL_PCD_IRQHandler+0x1e>
 8000888:	f894 3024 	ldrb.w	r3, [r4, #36]	; 0x24
 800088c:	f043 0380 	orr.w	r3, r3, #128	; 0x80
 8000890:	f8a1 304c 	strh.w	r3, [r1, #76]	; 0x4c
 8000894:	f884 2024 	strb.w	r2, [r4, #36]	; 0x24
 8000898:	e7c1      	b.n	800081e <HAL_PCD_IRQHandler+0x1e>
 800089a:	8805      	ldrh	r5, [r0, #0]
 800089c:	b2ab      	uxth	r3, r5
 800089e:	f415 6500 	ands.w	r5, r5, #2048	; 0x800
 80008a2:	d021      	beq.n	80008e8 <HAL_PCD_IRQHandler+0xe8>
 80008a4:	f8b0 3050 	ldrh.w	r3, [r0, #80]	; 0x50
 80008a8:	f894 2168 	ldrb.w	r2, [r4, #360]	; 0x168
 80008ac:	b29b      	uxth	r3, r3
 80008ae:	eb03 03c2 	add.w	r3, r3, r2, lsl #3
 80008b2:	eb00 0343 	add.w	r3, r0, r3, lsl #1
 80008b6:	f8b3 340c 	ldrh.w	r3, [r3, #1036]	; 0x40c
 80008ba:	f8b4 216e 	ldrh.w	r2, [r4, #366]	; 0x16e
 80008be:	f3c3 0309 	ubfx	r3, r3, #0, #10
 80008c2:	f8c4 3184 	str.w	r3, [r4, #388]	; 0x184
 80008c6:	f504 712c 	add.w	r1, r4, #688	; 0x2b0
 80008ca:	f001 fd59 	bl	8002380 <USB_ReadPMA>
 80008ce:	6822      	ldr	r2, [r4, #0]
 80008d0:	4620      	mov	r0, r4
 80008d2:	8813      	ldrh	r3, [r2, #0]
 80008d4:	f023 0370 	bic.w	r3, r3, #112	; 0x70
 80008d8:	051b      	lsls	r3, r3, #20
 80008da:	0d1b      	lsrs	r3, r3, #20
 80008dc:	f043 0380 	orr.w	r3, r3, #128	; 0x80
 80008e0:	8013      	strh	r3, [r2, #0]
 80008e2:	f002 fa63 	bl	8002dac <HAL_PCD_SetupStageCallback>
 80008e6:	e79a      	b.n	800081e <HAL_PCD_IRQHandler+0x1e>
 80008e8:	0419      	lsls	r1, r3, #16
 80008ea:	d598      	bpl.n	800081e <HAL_PCD_IRQHandler+0x1e>
 80008ec:	8803      	ldrh	r3, [r0, #0]
 80008ee:	f023 0370 	bic.w	r3, r3, #112	; 0x70
 80008f2:	051b      	lsls	r3, r3, #20
 80008f4:	0d1b      	lsrs	r3, r3, #20
 80008f6:	f043 0380 	orr.w	r3, r3, #128	; 0x80
 80008fa:	8003      	strh	r3, [r0, #0]
 80008fc:	f8b0 3050 	ldrh.w	r3, [r0, #80]	; 0x50
 8000900:	f894 2168 	ldrb.w	r2, [r4, #360]	; 0x168
 8000904:	b29b      	uxth	r3, r3
 8000906:	eb03 03c2 	add.w	r3, r3, r2, lsl #3
 800090a:	eb00 0343 	add.w	r3, r0, r3, lsl #1
 800090e:	f8b3 340c 	ldrh.w	r3, [r3, #1036]	; 0x40c
 8000912:	f3c3 0309 	ubfx	r3, r3, #0, #10
 8000916:	f8c4 3184 	str.w	r3, [r4, #388]	; 0x184
 800091a:	b18b      	cbz	r3, 8000940 <HAL_PCD_IRQHandler+0x140>
 800091c:	f8d4 117c 	ldr.w	r1, [r4, #380]	; 0x17c
 8000920:	b171      	cbz	r1, 8000940 <HAL_PCD_IRQHandler+0x140>
 8000922:	f8b4 216e 	ldrh.w	r2, [r4, #366]	; 0x16e
 8000926:	f001 fd2b 	bl	8002380 <USB_ReadPMA>
 800092a:	f8d4 317c 	ldr.w	r3, [r4, #380]	; 0x17c
 800092e:	f8d4 2184 	ldr.w	r2, [r4, #388]	; 0x184
 8000932:	4629      	mov	r1, r5
 8000934:	4413      	add	r3, r2
 8000936:	4620      	mov	r0, r4
 8000938:	f8c4 317c 	str.w	r3, [r4, #380]	; 0x17c
 800093c:	f002 fa3c 	bl	8002db8 <HAL_PCD_DataOutStageCallback>
 8000940:	6821      	ldr	r1, [r4, #0]
 8000942:	880a      	ldrh	r2, [r1, #0]
 8000944:	b293      	uxth	r3, r2
 8000946:	0512      	lsls	r2, r2, #20
 8000948:	f53f af69 	bmi.w	800081e <HAL_PCD_IRQHandler+0x1e>
 800094c:	f403 5340 	and.w	r3, r3, #12288	; 0x3000
 8000950:	f5b3 5f40 	cmp.w	r3, #12288	; 0x3000
 8000954:	f43f af63 	beq.w	800081e <HAL_PCD_IRQHandler+0x1e>
 8000958:	f8b1 3050 	ldrh.w	r3, [r1, #80]	; 0x50
 800095c:	f201 400c 	addw	r0, r1, #1036	; 0x40c
 8000960:	b29b      	uxth	r3, r3
 8000962:	5ac2      	ldrh	r2, [r0, r3]
 8000964:	f3c2 0209 	ubfx	r2, r2, #0, #10
 8000968:	52c2      	strh	r2, [r0, r3]
 800096a:	f8d4 2178 	ldr.w	r2, [r4, #376]	; 0x178
 800096e:	2a3e      	cmp	r2, #62	; 0x3e
 8000970:	d90c      	bls.n	800098c <HAL_PCD_IRQHandler+0x18c>
 8000972:	0955      	lsrs	r5, r2, #5
 8000974:	06d7      	lsls	r7, r2, #27
 8000976:	5ac2      	ldrh	r2, [r0, r3]
 8000978:	bf08      	it	eq
 800097a:	f105 35ff 	addeq.w	r5, r5, #4294967295
 800097e:	b292      	uxth	r2, r2
 8000980:	ea42 2285 	orr.w	r2, r2, r5, lsl #10
 8000984:	ea42 0208 	orr.w	r2, r2, r8
 8000988:	b292      	uxth	r2, r2
 800098a:	e004      	b.n	8000996 <HAL_PCD_IRQHandler+0x196>
 800098c:	b99a      	cbnz	r2, 80009b6 <HAL_PCD_IRQHandler+0x1b6>
 800098e:	5ac2      	ldrh	r2, [r0, r3]
 8000990:	b292      	uxth	r2, r2
 8000992:	f442 4200 	orr.w	r2, r2, #32768	; 0x8000
 8000996:	52c2      	strh	r2, [r0, r3]
 8000998:	880b      	ldrh	r3, [r1, #0]
 800099a:	f423 4380 	bic.w	r3, r3, #16384	; 0x4000
 800099e:	f023 0370 	bic.w	r3, r3, #112	; 0x70
 80009a2:	041b      	lsls	r3, r3, #16
 80009a4:	0c1b      	lsrs	r3, r3, #16
 80009a6:	f483 5340 	eor.w	r3, r3, #12288	; 0x3000
 80009aa:	f443 4300 	orr.w	r3, r3, #32768	; 0x8000
 80009ae:	f043 0380 	orr.w	r3, r3, #128	; 0x80
 80009b2:	800b      	strh	r3, [r1, #0]
 80009b4:	e733      	b.n	800081e <HAL_PCD_IRQHandler+0x1e>
 80009b6:	0855      	lsrs	r5, r2, #1
 80009b8:	07d6      	lsls	r6, r2, #31
 80009ba:	5ac2      	ldrh	r2, [r0, r3]
 80009bc:	bf48      	it	mi
 80009be:	3501      	addmi	r5, #1
 80009c0:	b292      	uxth	r2, r2
 80009c2:	ea42 2285 	orr.w	r2, r2, r5, lsl #10
 80009c6:	e7df      	b.n	8000988 <HAL_PCD_IRQHandler+0x188>
 80009c8:	f830 3026 	ldrh.w	r3, [r0, r6, lsl #2]
 80009cc:	041a      	lsls	r2, r3, #16
 80009ce:	b29f      	uxth	r7, r3
 80009d0:	f140 80f1 	bpl.w	8000bb6 <HAL_PCD_IRQHandler+0x3b6>
 80009d4:	2128      	movs	r1, #40	; 0x28
 80009d6:	f830 3026 	ldrh.w	r3, [r0, r6, lsl #2]
 80009da:	fb01 4106 	mla	r1, r1, r6, r4
 80009de:	f023 0370 	bic.w	r3, r3, #112	; 0x70
 80009e2:	051b      	lsls	r3, r3, #20
 80009e4:	0d1b      	lsrs	r3, r3, #20
 80009e6:	f043 0380 	orr.w	r3, r3, #128	; 0x80
 80009ea:	f820 3026 	strh.w	r3, [r0, r6, lsl #2]
 80009ee:	f891 3174 	ldrb.w	r3, [r1, #372]	; 0x174
 80009f2:	f500 6c80 	add.w	ip, r0, #1024	; 0x400
 80009f6:	b9b3      	cbnz	r3, 8000a26 <HAL_PCD_IRQHandler+0x226>
 80009f8:	f8b0 3050 	ldrh.w	r3, [r0, #80]	; 0x50
 80009fc:	f891 2168 	ldrb.w	r2, [r1, #360]	; 0x168
 8000a00:	b29b      	uxth	r3, r3
 8000a02:	3306      	adds	r3, #6
 8000a04:	eb03 03c2 	add.w	r3, r3, r2, lsl #3
 8000a08:	f83c 5013 	ldrh.w	r5, [ip, r3, lsl #1]
 8000a0c:	f3c5 0509 	ubfx	r5, r5, #0, #10
 8000a10:	2d00      	cmp	r5, #0
 8000a12:	f000 80b4 	beq.w	8000b7e <HAL_PCD_IRQHandler+0x37e>
 8000a16:	462b      	mov	r3, r5
 8000a18:	f8b1 216e 	ldrh.w	r2, [r1, #366]	; 0x16e
 8000a1c:	f8d1 117c 	ldr.w	r1, [r1, #380]	; 0x17c
 8000a20:	f001 fcae 	bl	8002380 <USB_ReadPMA>
 8000a24:	e0ab      	b.n	8000b7e <HAL_PCD_IRQHandler+0x37e>
 8000a26:	f891 216b 	ldrb.w	r2, [r1, #363]	; 0x16b
 8000a2a:	f891 3168 	ldrb.w	r3, [r1, #360]	; 0x168
 8000a2e:	2a02      	cmp	r2, #2
 8000a30:	f040 8084 	bne.w	8000b3c <HAL_PCD_IRQHandler+0x33c>
 8000a34:	f8b0 5050 	ldrh.w	r5, [r0, #80]	; 0x50
 8000a38:	ea4f 0bc3 	mov.w	fp, r3, lsl #3
 8000a3c:	b2ad      	uxth	r5, r5
 8000a3e:	f417 4a80 	ands.w	sl, r7, #16384	; 0x4000
 8000a42:	f8d1 2180 	ldr.w	r2, [r1, #384]	; 0x180
 8000a46:	445d      	add	r5, fp
 8000a48:	f007 0e40 	and.w	lr, r7, #64	; 0x40
 8000a4c:	d039      	beq.n	8000ac2 <HAL_PCD_IRQHandler+0x2c2>
 8000a4e:	3502      	adds	r5, #2
 8000a50:	f83c 5015 	ldrh.w	r5, [ip, r5, lsl #1]
 8000a54:	f3c5 0509 	ubfx	r5, r5, #0, #10
 8000a58:	4295      	cmp	r5, r2
 8000a5a:	d913      	bls.n	8000a84 <HAL_PCD_IRQHandler+0x284>
 8000a5c:	2200      	movs	r2, #0
 8000a5e:	f8c1 2180 	str.w	r2, [r1, #384]	; 0x180
 8000a62:	f830 2023 	ldrh.w	r2, [r0, r3, lsl #2]
 8000a66:	f422 4280 	bic.w	r2, r2, #16384	; 0x4000
 8000a6a:	f022 0270 	bic.w	r2, r2, #112	; 0x70
 8000a6e:	0412      	lsls	r2, r2, #16
 8000a70:	0c12      	lsrs	r2, r2, #16
 8000a72:	f482 5200 	eor.w	r2, r2, #8192	; 0x2000
 8000a76:	f442 4200 	orr.w	r2, r2, #32768	; 0x8000
 8000a7a:	f042 0280 	orr.w	r2, r2, #128	; 0x80
 8000a7e:	f820 2023 	strh.w	r2, [r0, r3, lsl #2]
 8000a82:	e004      	b.n	8000a8e <HAL_PCD_IRQHandler+0x28e>
 8000a84:	1b52      	subs	r2, r2, r5
 8000a86:	f8c1 2180 	str.w	r2, [r1, #384]	; 0x180
 8000a8a:	2a00      	cmp	r2, #0
 8000a8c:	d0e9      	beq.n	8000a62 <HAL_PCD_IRQHandler+0x262>
 8000a8e:	f1be 0f00 	cmp.w	lr, #0
 8000a92:	d00d      	beq.n	8000ab0 <HAL_PCD_IRQHandler+0x2b0>
 8000a94:	f830 2023 	ldrh.w	r2, [r0, r3, lsl #2]
 8000a98:	f422 42e0 	bic.w	r2, r2, #28672	; 0x7000
 8000a9c:	f022 0270 	bic.w	r2, r2, #112	; 0x70
 8000aa0:	0412      	lsls	r2, r2, #16
 8000aa2:	0c12      	lsrs	r2, r2, #16
 8000aa4:	f442 4200 	orr.w	r2, r2, #32768	; 0x8000
 8000aa8:	f042 02c0 	orr.w	r2, r2, #192	; 0xc0
 8000aac:	f820 2023 	strh.w	r2, [r0, r3, lsl #2]
 8000ab0:	2d00      	cmp	r5, #0
 8000ab2:	d064      	beq.n	8000b7e <HAL_PCD_IRQHandler+0x37e>
 8000ab4:	2128      	movs	r1, #40	; 0x28
 8000ab6:	fb01 4106 	mla	r1, r1, r6, r4
 8000aba:	462b      	mov	r3, r5
 8000abc:	f8b1 2170 	ldrh.w	r2, [r1, #368]	; 0x170
 8000ac0:	e7ac      	b.n	8000a1c <HAL_PCD_IRQHandler+0x21c>
 8000ac2:	3506      	adds	r5, #6
 8000ac4:	f83c 5015 	ldrh.w	r5, [ip, r5, lsl #1]
 8000ac8:	f3c5 0509 	ubfx	r5, r5, #0, #10
 8000acc:	4295      	cmp	r5, r2
 8000ace:	d912      	bls.n	8000af6 <HAL_PCD_IRQHandler+0x2f6>
 8000ad0:	f8c1 a180 	str.w	sl, [r1, #384]	; 0x180
 8000ad4:	f830 2023 	ldrh.w	r2, [r0, r3, lsl #2]
 8000ad8:	f422 4280 	bic.w	r2, r2, #16384	; 0x4000
 8000adc:	f022 0270 	bic.w	r2, r2, #112	; 0x70
 8000ae0:	0412      	lsls	r2, r2, #16
 8000ae2:	0c12      	lsrs	r2, r2, #16
 8000ae4:	f482 5200 	eor.w	r2, r2, #8192	; 0x2000
 8000ae8:	f442 4200 	orr.w	r2, r2, #32768	; 0x8000
 8000aec:	f042 0280 	orr.w	r2, r2, #128	; 0x80
 8000af0:	f820 2023 	strh.w	r2, [r0, r3, lsl #2]
 8000af4:	e004      	b.n	8000b00 <HAL_PCD_IRQHandler+0x300>
 8000af6:	1b52      	subs	r2, r2, r5
 8000af8:	f8c1 2180 	str.w	r2, [r1, #384]	; 0x180
 8000afc:	2a00      	cmp	r2, #0
 8000afe:	d0e9      	beq.n	8000ad4 <HAL_PCD_IRQHandler+0x2d4>
 8000b00:	f1be 0f00 	cmp.w	lr, #0
 8000b04:	d10d      	bne.n	8000b22 <HAL_PCD_IRQHandler+0x322>
 8000b06:	f830 2023 	ldrh.w	r2, [r0, r3, lsl #2]
 8000b0a:	f422 42e0 	bic.w	r2, r2, #28672	; 0x7000
 8000b0e:	f022 0270 	bic.w	r2, r2, #112	; 0x70
 8000b12:	0412      	lsls	r2, r2, #16
 8000b14:	0c12      	lsrs	r2, r2, #16
 8000b16:	f442 4200 	orr.w	r2, r2, #32768	; 0x8000
 8000b1a:	f042 02c0 	orr.w	r2, r2, #192	; 0xc0
 8000b1e:	f820 2023 	strh.w	r2, [r0, r3, lsl #2]
 8000b22:	b365      	cbz	r5, 8000b7e <HAL_PCD_IRQHandler+0x37e>
 8000b24:	2128      	movs	r1, #40	; 0x28
 8000b26:	fb01 4106 	mla	r1, r1, r6, r4
 8000b2a:	462b      	mov	r3, r5
 8000b2c:	f8b1 2172 	ldrh.w	r2, [r1, #370]	; 0x172
 8000b30:	e774      	b.n	8000a1c <HAL_PCD_IRQHandler+0x21c>
 8000b32:	bf00      	nop
 8000b34:	ffff8f0f 	.word	0xffff8f0f
 8000b38:	ffff8000 	.word	0xffff8000
 8000b3c:	f830 2023 	ldrh.w	r2, [r0, r3, lsl #2]
 8000b40:	f422 42e0 	bic.w	r2, r2, #28672	; 0x7000
 8000b44:	f022 0270 	bic.w	r2, r2, #112	; 0x70
 8000b48:	0412      	lsls	r2, r2, #16
 8000b4a:	0c12      	lsrs	r2, r2, #16
 8000b4c:	f442 4200 	orr.w	r2, r2, #32768	; 0x8000
 8000b50:	f042 02c0 	orr.w	r2, r2, #192	; 0xc0
 8000b54:	f820 2023 	strh.w	r2, [r0, r3, lsl #2]
 8000b58:	f891 2168 	ldrb.w	r2, [r1, #360]	; 0x168
 8000b5c:	f830 3022 	ldrh.w	r3, [r0, r2, lsl #2]
 8000b60:	00d2      	lsls	r2, r2, #3
 8000b62:	f413 4f80 	tst.w	r3, #16384	; 0x4000
 8000b66:	f8b0 3050 	ldrh.w	r3, [r0, #80]	; 0x50
 8000b6a:	b29b      	uxth	r3, r3
 8000b6c:	d055      	beq.n	8000c1a <HAL_PCD_IRQHandler+0x41a>
 8000b6e:	3302      	adds	r3, #2
 8000b70:	4413      	add	r3, r2
 8000b72:	f83c 5013 	ldrh.w	r5, [ip, r3, lsl #1]
 8000b76:	f3c5 0509 	ubfx	r5, r5, #0, #10
 8000b7a:	2d00      	cmp	r5, #0
 8000b7c:	d19d      	bne.n	8000aba <HAL_PCD_IRQHandler+0x2ba>
 8000b7e:	2128      	movs	r1, #40	; 0x28
 8000b80:	4371      	muls	r1, r6
 8000b82:	1863      	adds	r3, r4, r1
 8000b84:	f8d3 2184 	ldr.w	r2, [r3, #388]	; 0x184
 8000b88:	442a      	add	r2, r5
 8000b8a:	f8c3 2184 	str.w	r2, [r3, #388]	; 0x184
 8000b8e:	f8d3 217c 	ldr.w	r2, [r3, #380]	; 0x17c
 8000b92:	442a      	add	r2, r5
 8000b94:	f8c3 217c 	str.w	r2, [r3, #380]	; 0x17c
 8000b98:	f8d3 2180 	ldr.w	r2, [r3, #384]	; 0x180
 8000b9c:	b11a      	cbz	r2, 8000ba6 <HAL_PCD_IRQHandler+0x3a6>
 8000b9e:	f8d3 3178 	ldr.w	r3, [r3, #376]	; 0x178
 8000ba2:	429d      	cmp	r5, r3
 8000ba4:	d242      	bcs.n	8000c2c <HAL_PCD_IRQHandler+0x42c>
 8000ba6:	2328      	movs	r3, #40	; 0x28
 8000ba8:	fb03 4306 	mla	r3, r3, r6, r4
 8000bac:	4620      	mov	r0, r4
 8000bae:	f893 1168 	ldrb.w	r1, [r3, #360]	; 0x168
 8000bb2:	f002 f901 	bl	8002db8 <HAL_PCD_DataOutStageCallback>
 8000bb6:	063b      	lsls	r3, r7, #24
 8000bb8:	6820      	ldr	r0, [r4, #0]
 8000bba:	f57f ae30 	bpl.w	800081e <HAL_PCD_IRQHandler+0x1e>
 8000bbe:	2228      	movs	r2, #40	; 0x28
 8000bc0:	f830 3026 	ldrh.w	r3, [r0, r6, lsl #2]
 8000bc4:	fb02 4506 	mla	r5, r2, r6, r4
 8000bc8:	b29b      	uxth	r3, r3
 8000bca:	ea03 0309 	and.w	r3, r3, r9
 8000bce:	f443 4300 	orr.w	r3, r3, #32768	; 0x8000
 8000bd2:	f820 3026 	strh.w	r3, [r0, r6, lsl #2]
 8000bd6:	f895 302b 	ldrb.w	r3, [r5, #43]	; 0x2b
 8000bda:	2b01      	cmp	r3, #1
 8000bdc:	d150      	bne.n	8000c80 <HAL_PCD_IRQHandler+0x480>
 8000bde:	2100      	movs	r1, #0
 8000be0:	f895 3034 	ldrb.w	r3, [r5, #52]	; 0x34
 8000be4:	6429      	str	r1, [r5, #64]	; 0x40
 8000be6:	b393      	cbz	r3, 8000c4e <HAL_PCD_IRQHandler+0x44e>
 8000be8:	f017 0740 	ands.w	r7, r7, #64	; 0x40
 8000bec:	f895 2029 	ldrb.w	r2, [r5, #41]	; 0x29
 8000bf0:	f895 3028 	ldrb.w	r3, [r5, #40]	; 0x28
 8000bf4:	d031      	beq.n	8000c5a <HAL_PCD_IRQHandler+0x45a>
 8000bf6:	bb02      	cbnz	r2, 8000c3a <HAL_PCD_IRQHandler+0x43a>
 8000bf8:	f8b0 2050 	ldrh.w	r2, [r0, #80]	; 0x50
 8000bfc:	011b      	lsls	r3, r3, #4
 8000bfe:	b292      	uxth	r2, r2
 8000c00:	f200 4004 	addw	r0, r0, #1028	; 0x404
 8000c04:	4410      	add	r0, r2
 8000c06:	5a1a      	ldrh	r2, [r3, r0]
 8000c08:	f3c2 0209 	ubfx	r2, r2, #0, #10
 8000c0c:	521a      	strh	r2, [r3, r0]
 8000c0e:	5a1a      	ldrh	r2, [r3, r0]
 8000c10:	b292      	uxth	r2, r2
 8000c12:	f442 4200 	orr.w	r2, r2, #32768	; 0x8000
 8000c16:	521a      	strh	r2, [r3, r0]
 8000c18:	e019      	b.n	8000c4e <HAL_PCD_IRQHandler+0x44e>
 8000c1a:	3306      	adds	r3, #6
 8000c1c:	441a      	add	r2, r3
 8000c1e:	f83c 5012 	ldrh.w	r5, [ip, r2, lsl #1]
 8000c22:	f3c5 0509 	ubfx	r5, r5, #0, #10
 8000c26:	2d00      	cmp	r5, #0
 8000c28:	d0a9      	beq.n	8000b7e <HAL_PCD_IRQHandler+0x37e>
 8000c2a:	e77e      	b.n	8000b2a <HAL_PCD_IRQHandler+0x32a>
 8000c2c:	f501 71b4 	add.w	r1, r1, #360	; 0x168
 8000c30:	6820      	ldr	r0, [r4, #0]
 8000c32:	4421      	add	r1, r4
 8000c34:	f001 f98c 	bl	8001f50 <USB_EPStartXfer>
 8000c38:	e7bd      	b.n	8000bb6 <HAL_PCD_IRQHandler+0x3b6>
 8000c3a:	2a01      	cmp	r2, #1
 8000c3c:	d107      	bne.n	8000c4e <HAL_PCD_IRQHandler+0x44e>
 8000c3e:	f8b0 2050 	ldrh.w	r2, [r0, #80]	; 0x50
 8000c42:	f200 4004 	addw	r0, r0, #1028	; 0x404
 8000c46:	b292      	uxth	r2, r2
 8000c48:	011b      	lsls	r3, r3, #4
 8000c4a:	4410      	add	r0, r2
 8000c4c:	5219      	strh	r1, [r3, r0]
 8000c4e:	f895 1028 	ldrb.w	r1, [r5, #40]	; 0x28
 8000c52:	4620      	mov	r0, r4
 8000c54:	f002 f8b9 	bl	8002dca <HAL_PCD_DataInStageCallback>
 8000c58:	e5e1      	b.n	800081e <HAL_PCD_IRQHandler+0x1e>
 8000c5a:	b932      	cbnz	r2, 8000c6a <HAL_PCD_IRQHandler+0x46a>
 8000c5c:	f8b0 2050 	ldrh.w	r2, [r0, #80]	; 0x50
 8000c60:	011b      	lsls	r3, r3, #4
 8000c62:	b292      	uxth	r2, r2
 8000c64:	f200 400c 	addw	r0, r0, #1036	; 0x40c
 8000c68:	e7cc      	b.n	8000c04 <HAL_PCD_IRQHandler+0x404>
 8000c6a:	2a01      	cmp	r2, #1
 8000c6c:	d1ef      	bne.n	8000c4e <HAL_PCD_IRQHandler+0x44e>
 8000c6e:	f8b0 2050 	ldrh.w	r2, [r0, #80]	; 0x50
 8000c72:	f200 400c 	addw	r0, r0, #1036	; 0x40c
 8000c76:	b292      	uxth	r2, r2
 8000c78:	011b      	lsls	r3, r3, #4
 8000c7a:	4410      	add	r0, r2
 8000c7c:	521f      	strh	r7, [r3, r0]
 8000c7e:	e7e6      	b.n	8000c4e <HAL_PCD_IRQHandler+0x44e>
 8000c80:	f895 1028 	ldrb.w	r1, [r5, #40]	; 0x28
 8000c84:	f417 7c80 	ands.w	ip, r7, #256	; 0x100
 8000c88:	6c2b      	ldr	r3, [r5, #64]	; 0x40
 8000c8a:	ea4f 0ac1 	mov.w	sl, r1, lsl #3
 8000c8e:	f500 6e80 	add.w	lr, r0, #1024	; 0x400
 8000c92:	d11b      	bne.n	8000ccc <HAL_PCD_IRQHandler+0x4cc>
 8000c94:	f8b0 7050 	ldrh.w	r7, [r0, #80]	; 0x50
 8000c98:	b2bf      	uxth	r7, r7
 8000c9a:	4457      	add	r7, sl
 8000c9c:	3702      	adds	r7, #2
 8000c9e:	f83e 7017 	ldrh.w	r7, [lr, r7, lsl #1]
 8000ca2:	f3c7 0709 	ubfx	r7, r7, #0, #10
 8000ca6:	429f      	cmp	r7, r3
 8000ca8:	d302      	bcc.n	8000cb0 <HAL_PCD_IRQHandler+0x4b0>
 8000caa:	f8c5 c040 	str.w	ip, [r5, #64]	; 0x40
 8000cae:	e7d0      	b.n	8000c52 <HAL_PCD_IRQHandler+0x452>
 8000cb0:	1bdb      	subs	r3, r3, r7
 8000cb2:	642b      	str	r3, [r5, #64]	; 0x40
 8000cb4:	6beb      	ldr	r3, [r5, #60]	; 0x3c
 8000cb6:	fb06 2202 	mla	r2, r6, r2, r2
 8000cba:	443b      	add	r3, r7
 8000cbc:	63eb      	str	r3, [r5, #60]	; 0x3c
 8000cbe:	6c6b      	ldr	r3, [r5, #68]	; 0x44
 8000cc0:	18a1      	adds	r1, r4, r2
 8000cc2:	443b      	add	r3, r7
 8000cc4:	646b      	str	r3, [r5, #68]	; 0x44
 8000cc6:	f001 f943 	bl	8001f50 <USB_EPStartXfer>
 8000cca:	e5a8      	b.n	800081e <HAL_PCD_IRQHandler+0x1e>
 8000ccc:	f8b0 2050 	ldrh.w	r2, [r0, #80]	; 0x50
 8000cd0:	f017 0c40 	ands.w	ip, r7, #64	; 0x40
 8000cd4:	b292      	uxth	r2, r2
 8000cd6:	4452      	add	r2, sl
 8000cd8:	f407 4780 	and.w	r7, r7, #16384	; 0x4000
 8000cdc:	f000 80dc 	beq.w	8000e98 <HAL_PCD_IRQHandler+0x698>
 8000ce0:	3202      	adds	r2, #2
 8000ce2:	f83e 2012 	ldrh.w	r2, [lr, r2, lsl #1]
 8000ce6:	f04f 0c28 	mov.w	ip, #40	; 0x28
 8000cea:	f3c2 0209 	ubfx	r2, r2, #0, #10
 8000cee:	429a      	cmp	r2, r3
 8000cf0:	bf28      	it	cs
 8000cf2:	2300      	movcs	r3, #0
 8000cf4:	fb0c 4c06 	mla	ip, ip, r6, r4
 8000cf8:	bf38      	it	cc
 8000cfa:	1a9b      	subcc	r3, r3, r2
 8000cfc:	f8cc 3040 	str.w	r3, [ip, #64]	; 0x40
 8000d00:	b2bf      	uxth	r7, r7
 8000d02:	2b00      	cmp	r3, #0
 8000d04:	d14d      	bne.n	8000da2 <HAL_PCD_IRQHandler+0x5a2>
 8000d06:	f895 2029 	ldrb.w	r2, [r5, #41]	; 0x29
 8000d0a:	2a00      	cmp	r2, #0
 8000d0c:	d136      	bne.n	8000d7c <HAL_PCD_IRQHandler+0x57c>
 8000d0e:	f8b0 2050 	ldrh.w	r2, [r0, #80]	; 0x50
 8000d12:	f200 4604 	addw	r6, r0, #1028	; 0x404
 8000d16:	b292      	uxth	r2, r2
 8000d18:	010b      	lsls	r3, r1, #4
 8000d1a:	4416      	add	r6, r2
 8000d1c:	5af2      	ldrh	r2, [r6, r3]
 8000d1e:	f3c2 0209 	ubfx	r2, r2, #0, #10
 8000d22:	52f2      	strh	r2, [r6, r3]
 8000d24:	5af2      	ldrh	r2, [r6, r3]
 8000d26:	b292      	uxth	r2, r2
 8000d28:	f442 4200 	orr.w	r2, r2, #32768	; 0x8000
 8000d2c:	52f2      	strh	r2, [r6, r3]
 8000d2e:	f8b0 2050 	ldrh.w	r2, [r0, #80]	; 0x50
 8000d32:	f200 400c 	addw	r0, r0, #1036	; 0x40c
 8000d36:	b292      	uxth	r2, r2
 8000d38:	4410      	add	r0, r2
 8000d3a:	5ac2      	ldrh	r2, [r0, r3]
 8000d3c:	f3c2 0209 	ubfx	r2, r2, #0, #10
 8000d40:	52c2      	strh	r2, [r0, r3]
 8000d42:	5ac2      	ldrh	r2, [r0, r3]
 8000d44:	b292      	uxth	r2, r2
 8000d46:	f442 4200 	orr.w	r2, r2, #32768	; 0x8000
 8000d4a:	52c2      	strh	r2, [r0, r3]
 8000d4c:	4620      	mov	r0, r4
 8000d4e:	f002 f83c 	bl	8002dca <HAL_PCD_DataInStageCallback>
 8000d52:	2f00      	cmp	r7, #0
 8000d54:	f000 80dc 	beq.w	8000f10 <HAL_PCD_IRQHandler+0x710>
 8000d58:	f895 1028 	ldrb.w	r1, [r5, #40]	; 0x28
 8000d5c:	6822      	ldr	r2, [r4, #0]
 8000d5e:	f832 3021 	ldrh.w	r3, [r2, r1, lsl #2]
 8000d62:	f423 43e0 	bic.w	r3, r3, #28672	; 0x7000
 8000d66:	f023 0370 	bic.w	r3, r3, #112	; 0x70
 8000d6a:	041b      	lsls	r3, r3, #16
 8000d6c:	0c1b      	lsrs	r3, r3, #16
 8000d6e:	f443 4340 	orr.w	r3, r3, #49152	; 0xc000
 8000d72:	f043 0380 	orr.w	r3, r3, #128	; 0x80
 8000d76:	f822 3021 	strh.w	r3, [r2, r1, lsl #2]
 8000d7a:	e0c9      	b.n	8000f10 <HAL_PCD_IRQHandler+0x710>
 8000d7c:	2a01      	cmp	r2, #1
 8000d7e:	d1e5      	bne.n	8000d4c <HAL_PCD_IRQHandler+0x54c>
 8000d80:	f8b0 c050 	ldrh.w	ip, [r0, #80]	; 0x50
 8000d84:	f200 4604 	addw	r6, r0, #1028	; 0x404
 8000d88:	fa1f fc8c 	uxth.w	ip, ip
 8000d8c:	010a      	lsls	r2, r1, #4
 8000d8e:	4466      	add	r6, ip
 8000d90:	52b3      	strh	r3, [r6, r2]
 8000d92:	f8b0 6050 	ldrh.w	r6, [r0, #80]	; 0x50
 8000d96:	f200 400c 	addw	r0, r0, #1036	; 0x40c
 8000d9a:	b2b6      	uxth	r6, r6
 8000d9c:	4430      	add	r0, r6
 8000d9e:	5283      	strh	r3, [r0, r2]
 8000da0:	e7d4      	b.n	8000d4c <HAL_PCD_IRQHandler+0x54c>
 8000da2:	b16f      	cbz	r7, 8000dc0 <HAL_PCD_IRQHandler+0x5c0>
 8000da4:	f830 3021 	ldrh.w	r3, [r0, r1, lsl #2]
 8000da8:	f423 43e0 	bic.w	r3, r3, #28672	; 0x7000
 8000dac:	f023 0370 	bic.w	r3, r3, #112	; 0x70
 8000db0:	041b      	lsls	r3, r3, #16
 8000db2:	0c1b      	lsrs	r3, r3, #16
 8000db4:	f443 4340 	orr.w	r3, r3, #49152	; 0xc000
 8000db8:	f043 0380 	orr.w	r3, r3, #128	; 0x80
 8000dbc:	f820 3021 	strh.w	r3, [r0, r1, lsl #2]
 8000dc0:	2728      	movs	r7, #40	; 0x28
 8000dc2:	fb07 4706 	mla	r7, r7, r6, r4
 8000dc6:	f897 304c 	ldrb.w	r3, [r7, #76]	; 0x4c
 8000dca:	2b01      	cmp	r3, #1
 8000dcc:	f040 80a0 	bne.w	8000f10 <HAL_PCD_IRQHandler+0x710>
 8000dd0:	6bfb      	ldr	r3, [r7, #60]	; 0x3c
 8000dd2:	f8d7 e048 	ldr.w	lr, [r7, #72]	; 0x48
 8000dd6:	eb03 0c02 	add.w	ip, r3, r2
 8000dda:	6c7b      	ldr	r3, [r7, #68]	; 0x44
 8000ddc:	f8c7 c03c 	str.w	ip, [r7, #60]	; 0x3c
 8000de0:	4413      	add	r3, r2
 8000de2:	647b      	str	r3, [r7, #68]	; 0x44
 8000de4:	6bbb      	ldr	r3, [r7, #56]	; 0x38
 8000de6:	459e      	cmp	lr, r3
 8000de8:	d32c      	bcc.n	8000e44 <HAL_PCD_IRQHandler+0x644>
 8000dea:	ebae 0203 	sub.w	r2, lr, r3
 8000dee:	64ba      	str	r2, [r7, #72]	; 0x48
 8000df0:	f895 2029 	ldrb.w	r2, [r5, #41]	; 0x29
 8000df4:	fa1f fe83 	uxth.w	lr, r3
 8000df8:	2a00      	cmp	r2, #0
 8000dfa:	d141      	bne.n	8000e80 <HAL_PCD_IRQHandler+0x680>
 8000dfc:	f8b0 7050 	ldrh.w	r7, [r0, #80]	; 0x50
 8000e00:	f200 4204 	addw	r2, r0, #1028	; 0x404
 8000e04:	b2bf      	uxth	r7, r7
 8000e06:	443a      	add	r2, r7
 8000e08:	0109      	lsls	r1, r1, #4
 8000e0a:	5a57      	ldrh	r7, [r2, r1]
 8000e0c:	2b3e      	cmp	r3, #62	; 0x3e
 8000e0e:	f3c7 0709 	ubfx	r7, r7, #0, #10
 8000e12:	5257      	strh	r7, [r2, r1]
 8000e14:	d923      	bls.n	8000e5e <HAL_PCD_IRQHandler+0x65e>
 8000e16:	06df      	lsls	r7, r3, #27
 8000e18:	5a57      	ldrh	r7, [r2, r1]
 8000e1a:	ea4f 1a53 	mov.w	sl, r3, lsr #5
 8000e1e:	bf08      	it	eq
 8000e20:	f10a 3aff 	addeq.w	sl, sl, #4294967295
 8000e24:	b2bf      	uxth	r7, r7
 8000e26:	ea47 278a 	orr.w	r7, r7, sl, lsl #10
 8000e2a:	ea47 0708 	orr.w	r7, r7, r8
 8000e2e:	b2bf      	uxth	r7, r7
 8000e30:	5257      	strh	r7, [r2, r1]
 8000e32:	2228      	movs	r2, #40	; 0x28
 8000e34:	4673      	mov	r3, lr
 8000e36:	4661      	mov	r1, ip
 8000e38:	fb02 4206 	mla	r2, r2, r6, r4
 8000e3c:	8e12      	ldrh	r2, [r2, #48]	; 0x30
 8000e3e:	f001 f877 	bl	8001f30 <USB_WritePMA>
 8000e42:	e065      	b.n	8000f10 <HAL_PCD_IRQHandler+0x710>
 8000e44:	f1be 0f00 	cmp.w	lr, #0
 8000e48:	d103      	bne.n	8000e52 <HAL_PCD_IRQHandler+0x652>
 8000e4a:	4613      	mov	r3, r2
 8000e4c:	f887 e04c 	strb.w	lr, [r7, #76]	; 0x4c
 8000e50:	e7ce      	b.n	8000df0 <HAL_PCD_IRQHandler+0x5f0>
 8000e52:	2300      	movs	r3, #0
 8000e54:	f887 304c 	strb.w	r3, [r7, #76]	; 0x4c
 8000e58:	64bb      	str	r3, [r7, #72]	; 0x48
 8000e5a:	4673      	mov	r3, lr
 8000e5c:	e7c8      	b.n	8000df0 <HAL_PCD_IRQHandler+0x5f0>
 8000e5e:	b92b      	cbnz	r3, 8000e6c <HAL_PCD_IRQHandler+0x66c>
 8000e60:	5a53      	ldrh	r3, [r2, r1]
 8000e62:	b29b      	uxth	r3, r3
 8000e64:	f443 4300 	orr.w	r3, r3, #32768	; 0x8000
 8000e68:	5253      	strh	r3, [r2, r1]
 8000e6a:	e7e2      	b.n	8000e32 <HAL_PCD_IRQHandler+0x632>
 8000e6c:	085f      	lsrs	r7, r3, #1
 8000e6e:	07db      	lsls	r3, r3, #31
 8000e70:	5a53      	ldrh	r3, [r2, r1]
 8000e72:	bf48      	it	mi
 8000e74:	3701      	addmi	r7, #1
 8000e76:	b29b      	uxth	r3, r3
 8000e78:	ea43 2387 	orr.w	r3, r3, r7, lsl #10
 8000e7c:	b29b      	uxth	r3, r3
 8000e7e:	e7f3      	b.n	8000e68 <HAL_PCD_IRQHandler+0x668>
 8000e80:	2a01      	cmp	r2, #1
 8000e82:	d1d6      	bne.n	8000e32 <HAL_PCD_IRQHandler+0x632>
 8000e84:	f8b0 2050 	ldrh.w	r2, [r0, #80]	; 0x50
 8000e88:	f200 4304 	addw	r3, r0, #1028	; 0x404
 8000e8c:	b292      	uxth	r2, r2
 8000e8e:	4413      	add	r3, r2
 8000e90:	0109      	lsls	r1, r1, #4
 8000e92:	f823 e001 	strh.w	lr, [r3, r1]
 8000e96:	e7cc      	b.n	8000e32 <HAL_PCD_IRQHandler+0x632>
 8000e98:	3206      	adds	r2, #6
 8000e9a:	f83e 2012 	ldrh.w	r2, [lr, r2, lsl #1]
 8000e9e:	b2bf      	uxth	r7, r7
 8000ea0:	f3c2 0209 	ubfx	r2, r2, #0, #10
 8000ea4:	429a      	cmp	r2, r3
 8000ea6:	bf88      	it	hi
 8000ea8:	4663      	movhi	r3, ip
 8000eaa:	f04f 0c28 	mov.w	ip, #40	; 0x28
 8000eae:	fb0c 4c06 	mla	ip, ip, r6, r4
 8000eb2:	bf98      	it	ls
 8000eb4:	1a9b      	subls	r3, r3, r2
 8000eb6:	f8cc 3040 	str.w	r3, [ip, #64]	; 0x40
 8000eba:	2b00      	cmp	r3, #0
 8000ebc:	d14e      	bne.n	8000f5c <HAL_PCD_IRQHandler+0x75c>
 8000ebe:	f895 2029 	ldrb.w	r2, [r5, #41]	; 0x29
 8000ec2:	2a00      	cmp	r2, #0
 8000ec4:	d137      	bne.n	8000f36 <HAL_PCD_IRQHandler+0x736>
 8000ec6:	f8b0 2050 	ldrh.w	r2, [r0, #80]	; 0x50
 8000eca:	f200 4604 	addw	r6, r0, #1028	; 0x404
 8000ece:	b292      	uxth	r2, r2
 8000ed0:	010b      	lsls	r3, r1, #4
 8000ed2:	4416      	add	r6, r2
 8000ed4:	5af2      	ldrh	r2, [r6, r3]
 8000ed6:	f3c2 0209 	ubfx	r2, r2, #0, #10
 8000eda:	52f2      	strh	r2, [r6, r3]
 8000edc:	5af2      	ldrh	r2, [r6, r3]
 8000ede:	b292      	uxth	r2, r2
 8000ee0:	f442 4200 	orr.w	r2, r2, #32768	; 0x8000
 8000ee4:	52f2      	strh	r2, [r6, r3]
 8000ee6:	f8b0 2050 	ldrh.w	r2, [r0, #80]	; 0x50
 8000eea:	f200 400c 	addw	r0, r0, #1036	; 0x40c
 8000eee:	b292      	uxth	r2, r2
 8000ef0:	4410      	add	r0, r2
 8000ef2:	5ac2      	ldrh	r2, [r0, r3]
 8000ef4:	f3c2 0209 	ubfx	r2, r2, #0, #10
 8000ef8:	52c2      	strh	r2, [r0, r3]
 8000efa:	5ac2      	ldrh	r2, [r0, r3]
 8000efc:	b292      	uxth	r2, r2
 8000efe:	f442 4200 	orr.w	r2, r2, #32768	; 0x8000
 8000f02:	52c2      	strh	r2, [r0, r3]
 8000f04:	4620      	mov	r0, r4
 8000f06:	f001 ff60 	bl	8002dca <HAL_PCD_DataInStageCallback>
 8000f0a:	2f00      	cmp	r7, #0
 8000f0c:	f43f af24 	beq.w	8000d58 <HAL_PCD_IRQHandler+0x558>
 8000f10:	f895 1028 	ldrb.w	r1, [r5, #40]	; 0x28
 8000f14:	6822      	ldr	r2, [r4, #0]
 8000f16:	f832 3021 	ldrh.w	r3, [r2, r1, lsl #2]
 8000f1a:	b29b      	uxth	r3, r3
 8000f1c:	f423 43e0 	bic.w	r3, r3, #28672	; 0x7000
 8000f20:	f023 0340 	bic.w	r3, r3, #64	; 0x40
 8000f24:	f083 0330 	eor.w	r3, r3, #48	; 0x30
 8000f28:	f443 4300 	orr.w	r3, r3, #32768	; 0x8000
 8000f2c:	f043 0380 	orr.w	r3, r3, #128	; 0x80
 8000f30:	f822 3021 	strh.w	r3, [r2, r1, lsl #2]
 8000f34:	e473      	b.n	800081e <HAL_PCD_IRQHandler+0x1e>
 8000f36:	2a01      	cmp	r2, #1
 8000f38:	d1e4      	bne.n	8000f04 <HAL_PCD_IRQHandler+0x704>
 8000f3a:	f8b0 c050 	ldrh.w	ip, [r0, #80]	; 0x50
 8000f3e:	f200 4604 	addw	r6, r0, #1028	; 0x404
 8000f42:	fa1f fc8c 	uxth.w	ip, ip
 8000f46:	010a      	lsls	r2, r1, #4
 8000f48:	4466      	add	r6, ip
 8000f4a:	52b3      	strh	r3, [r6, r2]
 8000f4c:	f8b0 6050 	ldrh.w	r6, [r0, #80]	; 0x50
 8000f50:	f200 400c 	addw	r0, r0, #1036	; 0x40c
 8000f54:	b2b6      	uxth	r6, r6
 8000f56:	4430      	add	r0, r6
 8000f58:	5283      	strh	r3, [r0, r2]
 8000f5a:	e7d3      	b.n	8000f04 <HAL_PCD_IRQHandler+0x704>
 8000f5c:	b96f      	cbnz	r7, 8000f7a <HAL_PCD_IRQHandler+0x77a>
 8000f5e:	f830 3021 	ldrh.w	r3, [r0, r1, lsl #2]
 8000f62:	f423 43e0 	bic.w	r3, r3, #28672	; 0x7000
 8000f66:	f023 0370 	bic.w	r3, r3, #112	; 0x70
 8000f6a:	041b      	lsls	r3, r3, #16
 8000f6c:	0c1b      	lsrs	r3, r3, #16
 8000f6e:	f443 4340 	orr.w	r3, r3, #49152	; 0xc000
 8000f72:	f043 0380 	orr.w	r3, r3, #128	; 0x80
 8000f76:	f820 3021 	strh.w	r3, [r0, r1, lsl #2]
 8000f7a:	f04f 0c28 	mov.w	ip, #40	; 0x28
 8000f7e:	fb0c 4c06 	mla	ip, ip, r6, r4
 8000f82:	f89c 304c 	ldrb.w	r3, [ip, #76]	; 0x4c
 8000f86:	2b01      	cmp	r3, #1
 8000f88:	d1c2      	bne.n	8000f10 <HAL_PCD_IRQHandler+0x710>
 8000f8a:	f8dc 3044 	ldr.w	r3, [ip, #68]	; 0x44
 8000f8e:	f8dc 703c 	ldr.w	r7, [ip, #60]	; 0x3c
 8000f92:	4413      	add	r3, r2
 8000f94:	f8dc e048 	ldr.w	lr, [ip, #72]	; 0x48
 8000f98:	f8cc 3044 	str.w	r3, [ip, #68]	; 0x44
 8000f9c:	f8dc 3038 	ldr.w	r3, [ip, #56]	; 0x38
 8000fa0:	4417      	add	r7, r2
 8000fa2:	459e      	cmp	lr, r3
 8000fa4:	f8cc 703c 	str.w	r7, [ip, #60]	; 0x3c
 8000fa8:	d327      	bcc.n	8000ffa <HAL_PCD_IRQHandler+0x7fa>
 8000faa:	ebae 0203 	sub.w	r2, lr, r3
 8000fae:	f8cc 2048 	str.w	r2, [ip, #72]	; 0x48
 8000fb2:	f895 2029 	ldrb.w	r2, [r5, #41]	; 0x29
 8000fb6:	fa1f fc83 	uxth.w	ip, r3
 8000fba:	2a00      	cmp	r2, #0
 8000fbc:	d143      	bne.n	8001046 <HAL_PCD_IRQHandler+0x846>
 8000fbe:	f8b0 e050 	ldrh.w	lr, [r0, #80]	; 0x50
 8000fc2:	f200 420c 	addw	r2, r0, #1036	; 0x40c
 8000fc6:	fa1f fe8e 	uxth.w	lr, lr
 8000fca:	4472      	add	r2, lr
 8000fcc:	0109      	lsls	r1, r1, #4
 8000fce:	f832 e001 	ldrh.w	lr, [r2, r1]
 8000fd2:	2b3e      	cmp	r3, #62	; 0x3e
 8000fd4:	f3ce 0e09 	ubfx	lr, lr, #0, #10
 8000fd8:	f822 e001 	strh.w	lr, [r2, r1]
 8000fdc:	d91b      	bls.n	8001016 <HAL_PCD_IRQHandler+0x816>
 8000fde:	ea4f 1e53 	mov.w	lr, r3, lsr #5
 8000fe2:	06db      	lsls	r3, r3, #27
 8000fe4:	5a53      	ldrh	r3, [r2, r1]
 8000fe6:	bf08      	it	eq
 8000fe8:	f10e 3eff 	addeq.w	lr, lr, #4294967295
 8000fec:	b29b      	uxth	r3, r3
 8000fee:	ea43 238e 	orr.w	r3, r3, lr, lsl #10
 8000ff2:	ea43 0308 	orr.w	r3, r3, r8
 8000ff6:	b29b      	uxth	r3, r3
 8000ff8:	e012      	b.n	8001020 <HAL_PCD_IRQHandler+0x820>
 8000ffa:	f1be 0f00 	cmp.w	lr, #0
 8000ffe:	d103      	bne.n	8001008 <HAL_PCD_IRQHandler+0x808>
 8001000:	4613      	mov	r3, r2
 8001002:	f88c e04c 	strb.w	lr, [ip, #76]	; 0x4c
 8001006:	e7d4      	b.n	8000fb2 <HAL_PCD_IRQHandler+0x7b2>
 8001008:	2300      	movs	r3, #0
 800100a:	f8cc 3048 	str.w	r3, [ip, #72]	; 0x48
 800100e:	f88c 304c 	strb.w	r3, [ip, #76]	; 0x4c
 8001012:	4673      	mov	r3, lr
 8001014:	e7cd      	b.n	8000fb2 <HAL_PCD_IRQHandler+0x7b2>
 8001016:	b95b      	cbnz	r3, 8001030 <HAL_PCD_IRQHandler+0x830>
 8001018:	5a53      	ldrh	r3, [r2, r1]
 800101a:	b29b      	uxth	r3, r3
 800101c:	f443 4300 	orr.w	r3, r3, #32768	; 0x8000
 8001020:	5253      	strh	r3, [r2, r1]
 8001022:	2328      	movs	r3, #40	; 0x28
 8001024:	fb03 4606 	mla	r6, r3, r6, r4
 8001028:	4639      	mov	r1, r7
 800102a:	4663      	mov	r3, ip
 800102c:	8e72      	ldrh	r2, [r6, #50]	; 0x32
 800102e:	e706      	b.n	8000e3e <HAL_PCD_IRQHandler+0x63e>
 8001030:	ea4f 0e53 	mov.w	lr, r3, lsr #1
 8001034:	07db      	lsls	r3, r3, #31
 8001036:	5a53      	ldrh	r3, [r2, r1]
 8001038:	bf48      	it	mi
 800103a:	f10e 0e01 	addmi.w	lr, lr, #1
 800103e:	b29b      	uxth	r3, r3
 8001040:	ea43 238e 	orr.w	r3, r3, lr, lsl #10
 8001044:	e7d7      	b.n	8000ff6 <HAL_PCD_IRQHandler+0x7f6>
 8001046:	2a01      	cmp	r2, #1
 8001048:	d1eb      	bne.n	8001022 <HAL_PCD_IRQHandler+0x822>
 800104a:	f8b0 2050 	ldrh.w	r2, [r0, #80]	; 0x50
 800104e:	f200 430c 	addw	r3, r0, #1036	; 0x40c
 8001052:	b292      	uxth	r2, r2
 8001054:	4413      	add	r3, r2
 8001056:	010a      	lsls	r2, r1, #4
 8001058:	f823 c002 	strh.w	ip, [r3, r2]
 800105c:	e7e1      	b.n	8001022 <HAL_PCD_IRQHandler+0x822>
 800105e:	0546      	lsls	r6, r0, #21
 8001060:	d512      	bpl.n	8001088 <HAL_PCD_IRQHandler+0x888>
 8001062:	6822      	ldr	r2, [r4, #0]
 8001064:	4620      	mov	r0, r4
 8001066:	f8b2 3044 	ldrh.w	r3, [r2, #68]	; 0x44
 800106a:	f423 6380 	bic.w	r3, r3, #1024	; 0x400
 800106e:	041b      	lsls	r3, r3, #16
 8001070:	0c1b      	lsrs	r3, r3, #16
 8001072:	f8a2 3044 	strh.w	r3, [r2, #68]	; 0x44
 8001076:	f001 feb4 	bl	8002de2 <HAL_PCD_ResetCallback>
 800107a:	4629      	mov	r1, r5
 800107c:	4620      	mov	r0, r4
 800107e:	b005      	add	sp, #20
 8001080:	e8bd 4ff0 	ldmia.w	sp!, {r4, r5, r6, r7, r8, r9, sl, fp, lr}
 8001084:	f7ff bba7 	b.w	80007d6 <HAL_PCD_SetAddress>
 8001088:	0441      	lsls	r1, r0, #17
 800108a:	d50a      	bpl.n	80010a2 <HAL_PCD_IRQHandler+0x8a2>
 800108c:	6822      	ldr	r2, [r4, #0]
 800108e:	f8b2 3044 	ldrh.w	r3, [r2, #68]	; 0x44
 8001092:	f423 4380 	bic.w	r3, r3, #16384	; 0x4000
 8001096:	041b      	lsls	r3, r3, #16
 8001098:	0c1b      	lsrs	r3, r3, #16
 800109a:	f8a2 3044 	strh.w	r3, [r2, #68]	; 0x44
 800109e:	f7ff bbc3 	b.w	8000828 <HAL_PCD_IRQHandler+0x28>
 80010a2:	0482      	lsls	r2, r0, #18
 80010a4:	d505      	bpl.n	80010b2 <HAL_PCD_IRQHandler+0x8b2>
 80010a6:	6822      	ldr	r2, [r4, #0]
 80010a8:	f8b2 3044 	ldrh.w	r3, [r2, #68]	; 0x44
 80010ac:	f423 5300 	bic.w	r3, r3, #8192	; 0x2000
 80010b0:	e7f1      	b.n	8001096 <HAL_PCD_IRQHandler+0x896>
 80010b2:	04c3      	lsls	r3, r0, #19
 80010b4:	d519      	bpl.n	80010ea <HAL_PCD_IRQHandler+0x8ea>
 80010b6:	6822      	ldr	r2, [r4, #0]
 80010b8:	4620      	mov	r0, r4
 80010ba:	f8b2 3040 	ldrh.w	r3, [r2, #64]	; 0x40
 80010be:	f023 0304 	bic.w	r3, r3, #4
 80010c2:	041b      	lsls	r3, r3, #16
 80010c4:	0c1b      	lsrs	r3, r3, #16
 80010c6:	f8a2 3040 	strh.w	r3, [r2, #64]	; 0x40
 80010ca:	f8b2 3040 	ldrh.w	r3, [r2, #64]	; 0x40
 80010ce:	f023 0308 	bic.w	r3, r3, #8
 80010d2:	041b      	lsls	r3, r3, #16
 80010d4:	0c1b      	lsrs	r3, r3, #16
 80010d6:	f8a2 3040 	strh.w	r3, [r2, #64]	; 0x40
 80010da:	f001 fea5 	bl	8002e28 <HAL_PCD_ResumeCallback>
 80010de:	6822      	ldr	r2, [r4, #0]
 80010e0:	f8b2 3044 	ldrh.w	r3, [r2, #68]	; 0x44
 80010e4:	f423 5380 	bic.w	r3, r3, #4096	; 0x1000
 80010e8:	e7d5      	b.n	8001096 <HAL_PCD_IRQHandler+0x896>
 80010ea:	0507      	lsls	r7, r0, #20
 80010ec:	d548      	bpl.n	8001180 <HAL_PCD_IRQHandler+0x980>
 80010ee:	4668      	mov	r0, sp
 80010f0:	6822      	ldr	r2, [r4, #0]
 80010f2:	4606      	mov	r6, r0
 80010f4:	4611      	mov	r1, r2
 80010f6:	4613      	mov	r3, r2
 80010f8:	f102 0520 	add.w	r5, r2, #32
 80010fc:	f833 7b04 	ldrh.w	r7, [r3], #4
 8001100:	429d      	cmp	r5, r3
 8001102:	f826 7b02 	strh.w	r7, [r6], #2
 8001106:	d1f9      	bne.n	80010fc <HAL_PCD_IRQHandler+0x8fc>
 8001108:	f8b2 3040 	ldrh.w	r3, [r2, #64]	; 0x40
 800110c:	b29b      	uxth	r3, r3
 800110e:	f043 0301 	orr.w	r3, r3, #1
 8001112:	f8a2 3040 	strh.w	r3, [r2, #64]	; 0x40
 8001116:	f8b2 3040 	ldrh.w	r3, [r2, #64]	; 0x40
 800111a:	f023 0301 	bic.w	r3, r3, #1
 800111e:	041b      	lsls	r3, r3, #16
 8001120:	0c1b      	lsrs	r3, r3, #16
 8001122:	f8a2 3040 	strh.w	r3, [r2, #64]	; 0x40
 8001126:	f8b2 3044 	ldrh.w	r3, [r2, #68]	; 0x44
 800112a:	055e      	lsls	r6, r3, #21
 800112c:	d5fb      	bpl.n	8001126 <HAL_PCD_IRQHandler+0x926>
 800112e:	f8b2 3044 	ldrh.w	r3, [r2, #68]	; 0x44
 8001132:	f423 6380 	bic.w	r3, r3, #1024	; 0x400
 8001136:	041b      	lsls	r3, r3, #16
 8001138:	0c1b      	lsrs	r3, r3, #16
 800113a:	f8a2 3044 	strh.w	r3, [r2, #68]	; 0x44
 800113e:	f830 3b02 	ldrh.w	r3, [r0], #2
 8001142:	f821 3b04 	strh.w	r3, [r1], #4
 8001146:	428d      	cmp	r5, r1
 8001148:	d1f9      	bne.n	800113e <HAL_PCD_IRQHandler+0x93e>
 800114a:	f8b2 3040 	ldrh.w	r3, [r2, #64]	; 0x40
 800114e:	4620      	mov	r0, r4
 8001150:	b29b      	uxth	r3, r3
 8001152:	f043 0308 	orr.w	r3, r3, #8
 8001156:	f8a2 3040 	strh.w	r3, [r2, #64]	; 0x40
 800115a:	f8b2 3044 	ldrh.w	r3, [r2, #68]	; 0x44
 800115e:	f423 6300 	bic.w	r3, r3, #2048	; 0x800
 8001162:	041b      	lsls	r3, r3, #16
 8001164:	0c1b      	lsrs	r3, r3, #16
 8001166:	f8a2 3044 	strh.w	r3, [r2, #68]	; 0x44
 800116a:	f8b2 3040 	ldrh.w	r3, [r2, #64]	; 0x40
 800116e:	b29b      	uxth	r3, r3
 8001170:	f043 0304 	orr.w	r3, r3, #4
 8001174:	f8a2 3040 	strh.w	r3, [r2, #64]	; 0x40
 8001178:	f001 fe46 	bl	8002e08 <HAL_PCD_SuspendCallback>
 800117c:	f7ff bb54 	b.w	8000828 <HAL_PCD_IRQHandler+0x28>
 8001180:	0582      	lsls	r2, r0, #22
 8001182:	d50d      	bpl.n	80011a0 <HAL_PCD_IRQHandler+0x9a0>
 8001184:	6822      	ldr	r2, [r4, #0]
 8001186:	4620      	mov	r0, r4
 8001188:	f8b2 3044 	ldrh.w	r3, [r2, #68]	; 0x44
 800118c:	f423 7300 	bic.w	r3, r3, #512	; 0x200
 8001190:	041b      	lsls	r3, r3, #16
 8001192:	0c1b      	lsrs	r3, r3, #16
 8001194:	f8a2 3044 	strh.w	r3, [r2, #68]	; 0x44
 8001198:	f001 fe1f 	bl	8002dda <HAL_PCD_SOFCallback>
 800119c:	f7ff bb44 	b.w	8000828 <HAL_PCD_IRQHandler+0x28>
 80011a0:	05c3      	lsls	r3, r0, #23
 80011a2:	f57f ab41 	bpl.w	8000828 <HAL_PCD_IRQHandler+0x28>
 80011a6:	6822      	ldr	r2, [r4, #0]
 80011a8:	f8b2 3044 	ldrh.w	r3, [r2, #68]	; 0x44
 80011ac:	f423 7380 	bic.w	r3, r3, #256	; 0x100
 80011b0:	e771      	b.n	8001096 <HAL_PCD_IRQHandler+0x896>
 80011b2:	bf00      	nop

080011b4 <HAL_PCD_EP_Open>:
 80011b4:	f011 0f80 	tst.w	r1, #128	; 0x80
 80011b8:	b570      	push	{r4, r5, r6, lr}
 80011ba:	4605      	mov	r5, r0
 80011bc:	f001 0007 	and.w	r0, r1, #7
 80011c0:	f04f 0128 	mov.w	r1, #40	; 0x28
 80011c4:	d01a      	beq.n	80011fc <HAL_PCD_EP_Open+0x48>
 80011c6:	2401      	movs	r4, #1
 80011c8:	fb00 1101 	mla	r1, r0, r1, r1
 80011cc:	4429      	add	r1, r5
 80011ce:	704c      	strb	r4, [r1, #1]
 80011d0:	2b02      	cmp	r3, #2
 80011d2:	70cb      	strb	r3, [r1, #3]
 80011d4:	bf08      	it	eq
 80011d6:	2300      	moveq	r3, #0
 80011d8:	7008      	strb	r0, [r1, #0]
 80011da:	bf08      	it	eq
 80011dc:	710b      	strbeq	r3, [r1, #4]
 80011de:	610a      	str	r2, [r1, #16]
 80011e0:	f895 32a8 	ldrb.w	r3, [r5, #680]	; 0x2a8
 80011e4:	2b01      	cmp	r3, #1
 80011e6:	d013      	beq.n	8001210 <HAL_PCD_EP_Open+0x5c>
 80011e8:	2301      	movs	r3, #1
 80011ea:	6828      	ldr	r0, [r5, #0]
 80011ec:	f885 32a8 	strb.w	r3, [r5, #680]	; 0x2a8
 80011f0:	f000 fbf2 	bl	80019d8 <USB_ActivateEndpoint>
 80011f4:	2000      	movs	r0, #0
 80011f6:	f885 02a8 	strb.w	r0, [r5, #680]	; 0x2a8
 80011fa:	bd70      	pop	{r4, r5, r6, pc}
 80011fc:	2600      	movs	r6, #0
 80011fe:	fb01 f400 	mul.w	r4, r1, r0
 8001202:	f504 71b4 	add.w	r1, r4, #360	; 0x168
 8001206:	442c      	add	r4, r5
 8001208:	4429      	add	r1, r5
 800120a:	f884 6169 	strb.w	r6, [r4, #361]	; 0x169
 800120e:	e7df      	b.n	80011d0 <HAL_PCD_EP_Open+0x1c>
 8001210:	2002      	movs	r0, #2
 8001212:	e7f2      	b.n	80011fa <HAL_PCD_EP_Open+0x46>

08001214 <HAL_PCD_EP_Close>:
 8001214:	f011 0f80 	tst.w	r1, #128	; 0x80
 8001218:	b510      	push	{r4, lr}
 800121a:	f001 0207 	and.w	r2, r1, #7
 800121e:	4604      	mov	r4, r0
 8001220:	f04f 0128 	mov.w	r1, #40	; 0x28
 8001224:	d013      	beq.n	800124e <HAL_PCD_EP_Close+0x3a>
 8001226:	2301      	movs	r3, #1
 8001228:	fb02 1101 	mla	r1, r2, r1, r1
 800122c:	4401      	add	r1, r0
 800122e:	704b      	strb	r3, [r1, #1]
 8001230:	700a      	strb	r2, [r1, #0]
 8001232:	f894 32a8 	ldrb.w	r3, [r4, #680]	; 0x2a8
 8001236:	2b01      	cmp	r3, #1
 8001238:	d013      	beq.n	8001262 <HAL_PCD_EP_Close+0x4e>
 800123a:	2301      	movs	r3, #1
 800123c:	6820      	ldr	r0, [r4, #0]
 800123e:	f884 32a8 	strb.w	r3, [r4, #680]	; 0x2a8
 8001242:	f000 fd29 	bl	8001c98 <USB_DeactivateEndpoint>
 8001246:	2000      	movs	r0, #0
 8001248:	f884 02a8 	strb.w	r0, [r4, #680]	; 0x2a8
 800124c:	bd10      	pop	{r4, pc}
 800124e:	fb01 f302 	mul.w	r3, r1, r2
 8001252:	f503 71b4 	add.w	r1, r3, #360	; 0x168
 8001256:	4401      	add	r1, r0
 8001258:	4403      	add	r3, r0
 800125a:	2000      	movs	r0, #0
 800125c:	f883 0169 	strb.w	r0, [r3, #361]	; 0x169
 8001260:	e7e6      	b.n	8001230 <HAL_PCD_EP_Close+0x1c>
 8001262:	2002      	movs	r0, #2
 8001264:	e7f2      	b.n	800124c <HAL_PCD_EP_Close+0x38>

08001266 <HAL_PCD_EP_Receive>:
 8001266:	b570      	push	{r4, r5, r6, lr}
 8001268:	2428      	movs	r4, #40	; 0x28
 800126a:	2600      	movs	r6, #0
 800126c:	f001 0107 	and.w	r1, r1, #7
 8001270:	434c      	muls	r4, r1
 8001272:	1905      	adds	r5, r0, r4
 8001274:	f885 1168 	strb.w	r1, [r5, #360]	; 0x168
 8001278:	f504 71b4 	add.w	r1, r4, #360	; 0x168
 800127c:	4401      	add	r1, r0
 800127e:	e9c5 235f 	strd	r2, r3, [r5, #380]	; 0x17c
 8001282:	f8c5 6184 	str.w	r6, [r5, #388]	; 0x184
 8001286:	f885 6169 	strb.w	r6, [r5, #361]	; 0x169
 800128a:	6800      	ldr	r0, [r0, #0]
 800128c:	f000 fe60 	bl	8001f50 <USB_EPStartXfer>
 8001290:	4630      	mov	r0, r6
 8001292:	bd70      	pop	{r4, r5, r6, pc}

08001294 <HAL_PCD_EP_Transmit>:
 8001294:	b570      	push	{r4, r5, r6, lr}
 8001296:	f001 0507 	and.w	r5, r1, #7
 800129a:	2128      	movs	r1, #40	; 0x28
 800129c:	fb01 0405 	mla	r4, r1, r5, r0
 80012a0:	2600      	movs	r6, #0
 80012a2:	e9c4 230f 	strd	r2, r3, [r4, #60]	; 0x3c
 80012a6:	2201      	movs	r2, #1
 80012a8:	fb05 1101 	mla	r1, r5, r1, r1
 80012ac:	f884 204c 	strb.w	r2, [r4, #76]	; 0x4c
 80012b0:	4401      	add	r1, r0
 80012b2:	64a3      	str	r3, [r4, #72]	; 0x48
 80012b4:	6466      	str	r6, [r4, #68]	; 0x44
 80012b6:	f884 2029 	strb.w	r2, [r4, #41]	; 0x29
 80012ba:	f884 5028 	strb.w	r5, [r4, #40]	; 0x28
 80012be:	6800      	ldr	r0, [r0, #0]
 80012c0:	f000 fe46 	bl	8001f50 <USB_EPStartXfer>
 80012c4:	4630      	mov	r0, r6
 80012c6:	bd70      	pop	{r4, r5, r6, pc}

080012c8 <HAL_PCD_EP_SetStall>:
 80012c8:	b538      	push	{r3, r4, r5, lr}
 80012ca:	6843      	ldr	r3, [r0, #4]
 80012cc:	f001 0507 	and.w	r5, r1, #7
 80012d0:	429d      	cmp	r5, r3
 80012d2:	4604      	mov	r4, r0
 80012d4:	d828      	bhi.n	8001328 <HAL_PCD_EP_SetStall+0x60>
 80012d6:	f011 0f80 	tst.w	r1, #128	; 0x80
 80012da:	f04f 0328 	mov.w	r3, #40	; 0x28
 80012de:	d01a      	beq.n	8001316 <HAL_PCD_EP_SetStall+0x4e>
 80012e0:	fb05 3303 	mla	r3, r5, r3, r3
 80012e4:	18c1      	adds	r1, r0, r3
 80012e6:	2301      	movs	r3, #1
 80012e8:	704b      	strb	r3, [r1, #1]
 80012ea:	2301      	movs	r3, #1
 80012ec:	700d      	strb	r5, [r1, #0]
 80012ee:	708b      	strb	r3, [r1, #2]
 80012f0:	f894 22a8 	ldrb.w	r2, [r4, #680]	; 0x2a8
 80012f4:	429a      	cmp	r2, r3
 80012f6:	d019      	beq.n	800132c <HAL_PCD_EP_SetStall+0x64>
 80012f8:	6820      	ldr	r0, [r4, #0]
 80012fa:	f884 32a8 	strb.w	r3, [r4, #680]	; 0x2a8
 80012fe:	f000 fd9e 	bl	8001e3e <USB_EPSetStall>
 8001302:	b925      	cbnz	r5, 800130e <HAL_PCD_EP_SetStall+0x46>
 8001304:	6820      	ldr	r0, [r4, #0]
 8001306:	f504 712c 	add.w	r1, r4, #688	; 0x2b0
 800130a:	f000 fe0f 	bl	8001f2c <USB_EP0_OutStart>
 800130e:	2000      	movs	r0, #0
 8001310:	f884 02a8 	strb.w	r0, [r4, #680]	; 0x2a8
 8001314:	bd38      	pop	{r3, r4, r5, pc}
 8001316:	2200      	movs	r2, #0
 8001318:	434b      	muls	r3, r1
 800131a:	f503 71b4 	add.w	r1, r3, #360	; 0x168
 800131e:	4403      	add	r3, r0
 8001320:	4401      	add	r1, r0
 8001322:	f883 2169 	strb.w	r2, [r3, #361]	; 0x169
 8001326:	e7e0      	b.n	80012ea <HAL_PCD_EP_SetStall+0x22>
 8001328:	2001      	movs	r0, #1
 800132a:	e7f3      	b.n	8001314 <HAL_PCD_EP_SetStall+0x4c>
 800132c:	2002      	movs	r0, #2
 800132e:	e7f1      	b.n	8001314 <HAL_PCD_EP_SetStall+0x4c>

08001330 <HAL_PCD_EP_ClrStall>:
 8001330:	b538      	push	{r3, r4, r5, lr}
 8001332:	6843      	ldr	r3, [r0, #4]
 8001334:	f001 020f 	and.w	r2, r1, #15
 8001338:	429a      	cmp	r2, r3
 800133a:	4604      	mov	r4, r0
 800133c:	d826      	bhi.n	800138c <HAL_PCD_EP_ClrStall+0x5c>
 800133e:	f011 0f80 	tst.w	r1, #128	; 0x80
 8001342:	f001 0207 	and.w	r2, r1, #7
 8001346:	f04f 0128 	mov.w	r1, #40	; 0x28
 800134a:	d015      	beq.n	8001378 <HAL_PCD_EP_ClrStall+0x48>
 800134c:	2301      	movs	r3, #1
 800134e:	fb02 1101 	mla	r1, r2, r1, r1
 8001352:	4401      	add	r1, r0
 8001354:	704b      	strb	r3, [r1, #1]
 8001356:	2500      	movs	r5, #0
 8001358:	700a      	strb	r2, [r1, #0]
 800135a:	708d      	strb	r5, [r1, #2]
 800135c:	f894 32a8 	ldrb.w	r3, [r4, #680]	; 0x2a8
 8001360:	2b01      	cmp	r3, #1
 8001362:	d015      	beq.n	8001390 <HAL_PCD_EP_ClrStall+0x60>
 8001364:	2301      	movs	r3, #1
 8001366:	6820      	ldr	r0, [r4, #0]
 8001368:	f884 32a8 	strb.w	r3, [r4, #680]	; 0x2a8
 800136c:	f000 fd87 	bl	8001e7e <USB_EPClearStall>
 8001370:	4628      	mov	r0, r5
 8001372:	f884 52a8 	strb.w	r5, [r4, #680]	; 0x2a8
 8001376:	bd38      	pop	{r3, r4, r5, pc}
 8001378:	fb01 f302 	mul.w	r3, r1, r2
 800137c:	f503 71b4 	add.w	r1, r3, #360	; 0x168
 8001380:	4401      	add	r1, r0
 8001382:	4403      	add	r3, r0
 8001384:	2000      	movs	r0, #0
 8001386:	f883 0169 	strb.w	r0, [r3, #361]	; 0x169
 800138a:	e7e4      	b.n	8001356 <HAL_PCD_EP_ClrStall+0x26>
 800138c:	2001      	movs	r0, #1
 800138e:	e7f2      	b.n	8001376 <HAL_PCD_EP_ClrStall+0x46>
 8001390:	2002      	movs	r0, #2
 8001392:	e7f0      	b.n	8001376 <HAL_PCD_EP_ClrStall+0x46>

08001394 <HAL_PCDEx_PMAConfig>:
 8001394:	b510      	push	{r4, lr}
 8001396:	2428      	movs	r4, #40	; 0x28
 8001398:	f011 0f80 	tst.w	r1, #128	; 0x80
 800139c:	bf1b      	ittet	ne
 800139e:	f001 0107 	andne.w	r1, r1, #7
 80013a2:	fb01 4404 	mlane	r4, r1, r4, r4
 80013a6:	fb04 0001 	mlaeq	r0, r4, r1, r0
 80013aa:	1900      	addne	r0, r0, r4
 80013ac:	bf08      	it	eq
 80013ae:	f500 70b4 	addeq.w	r0, r0, #360	; 0x168
 80013b2:	b299      	uxth	r1, r3
 80013b4:	b91a      	cbnz	r2, 80013be <HAL_PCDEx_PMAConfig+0x2a>
 80013b6:	7302      	strb	r2, [r0, #12]
 80013b8:	80c1      	strh	r1, [r0, #6]
 80013ba:	2000      	movs	r0, #0
 80013bc:	bd10      	pop	{r4, pc}
 80013be:	2201      	movs	r2, #1
 80013c0:	6083      	str	r3, [r0, #8]
 80013c2:	7302      	strb	r2, [r0, #12]
 80013c4:	e7f9      	b.n	80013ba <HAL_PCDEx_PMAConfig+0x26>
	...

080013c8 <HAL_RCC_OscConfig>:
 80013c8:	e92d 41f3 	stmdb	sp!, {r0, r1, r4, r5, r6, r7, r8, lr}
 80013cc:	4605      	mov	r5, r0
 80013ce:	b338      	cbz	r0, 8001420 <HAL_RCC_OscConfig+0x58>
 80013d0:	6803      	ldr	r3, [r0, #0]
 80013d2:	07db      	lsls	r3, r3, #31
 80013d4:	d410      	bmi.n	80013f8 <HAL_RCC_OscConfig+0x30>
 80013d6:	682b      	ldr	r3, [r5, #0]
 80013d8:	079f      	lsls	r7, r3, #30
 80013da:	d45e      	bmi.n	800149a <HAL_RCC_OscConfig+0xd2>
 80013dc:	682b      	ldr	r3, [r5, #0]
 80013de:	0719      	lsls	r1, r3, #28
 80013e0:	f100 8095 	bmi.w	800150e <HAL_RCC_OscConfig+0x146>
 80013e4:	682b      	ldr	r3, [r5, #0]
 80013e6:	075a      	lsls	r2, r3, #29
 80013e8:	f100 80c1 	bmi.w	800156e <HAL_RCC_OscConfig+0x1a6>
 80013ec:	69e8      	ldr	r0, [r5, #28]
 80013ee:	2800      	cmp	r0, #0
 80013f0:	f040 812c 	bne.w	800164c <HAL_RCC_OscConfig+0x284>
 80013f4:	2000      	movs	r0, #0
 80013f6:	e029      	b.n	800144c <HAL_RCC_OscConfig+0x84>
 80013f8:	4c90      	ldr	r4, [pc, #576]	; (800163c <HAL_RCC_OscConfig+0x274>)
 80013fa:	6863      	ldr	r3, [r4, #4]
 80013fc:	f003 030c 	and.w	r3, r3, #12
 8001400:	2b04      	cmp	r3, #4
 8001402:	d007      	beq.n	8001414 <HAL_RCC_OscConfig+0x4c>
 8001404:	6863      	ldr	r3, [r4, #4]
 8001406:	f003 030c 	and.w	r3, r3, #12
 800140a:	2b08      	cmp	r3, #8
 800140c:	d10a      	bne.n	8001424 <HAL_RCC_OscConfig+0x5c>
 800140e:	6863      	ldr	r3, [r4, #4]
 8001410:	03de      	lsls	r6, r3, #15
 8001412:	d507      	bpl.n	8001424 <HAL_RCC_OscConfig+0x5c>
 8001414:	6823      	ldr	r3, [r4, #0]
 8001416:	039c      	lsls	r4, r3, #14
 8001418:	d5dd      	bpl.n	80013d6 <HAL_RCC_OscConfig+0xe>
 800141a:	686b      	ldr	r3, [r5, #4]
 800141c:	2b00      	cmp	r3, #0
 800141e:	d1da      	bne.n	80013d6 <HAL_RCC_OscConfig+0xe>
 8001420:	2001      	movs	r0, #1
 8001422:	e013      	b.n	800144c <HAL_RCC_OscConfig+0x84>
 8001424:	686b      	ldr	r3, [r5, #4]
 8001426:	f5b3 3f80 	cmp.w	r3, #65536	; 0x10000
 800142a:	d112      	bne.n	8001452 <HAL_RCC_OscConfig+0x8a>
 800142c:	6823      	ldr	r3, [r4, #0]
 800142e:	f443 3380 	orr.w	r3, r3, #65536	; 0x10000
 8001432:	6023      	str	r3, [r4, #0]
 8001434:	f7fe ffda 	bl	80003ec <HAL_GetTick>
 8001438:	4606      	mov	r6, r0
 800143a:	6823      	ldr	r3, [r4, #0]
 800143c:	0398      	lsls	r0, r3, #14
 800143e:	d4ca      	bmi.n	80013d6 <HAL_RCC_OscConfig+0xe>
 8001440:	f7fe ffd4 	bl	80003ec <HAL_GetTick>
 8001444:	1b80      	subs	r0, r0, r6
 8001446:	2864      	cmp	r0, #100	; 0x64
 8001448:	d9f7      	bls.n	800143a <HAL_RCC_OscConfig+0x72>
 800144a:	2003      	movs	r0, #3
 800144c:	b002      	add	sp, #8
 800144e:	e8bd 81f0 	ldmia.w	sp!, {r4, r5, r6, r7, r8, pc}
 8001452:	b99b      	cbnz	r3, 800147c <HAL_RCC_OscConfig+0xb4>
 8001454:	6823      	ldr	r3, [r4, #0]
 8001456:	f423 3380 	bic.w	r3, r3, #65536	; 0x10000
 800145a:	6023      	str	r3, [r4, #0]
 800145c:	6823      	ldr	r3, [r4, #0]
 800145e:	f423 2380 	bic.w	r3, r3, #262144	; 0x40000
 8001462:	6023      	str	r3, [r4, #0]
 8001464:	f7fe ffc2 	bl	80003ec <HAL_GetTick>
 8001468:	4606      	mov	r6, r0
 800146a:	6823      	ldr	r3, [r4, #0]
 800146c:	0399      	lsls	r1, r3, #14
 800146e:	d5b2      	bpl.n	80013d6 <HAL_RCC_OscConfig+0xe>
 8001470:	f7fe ffbc 	bl	80003ec <HAL_GetTick>
 8001474:	1b80      	subs	r0, r0, r6
 8001476:	2864      	cmp	r0, #100	; 0x64
 8001478:	d9f7      	bls.n	800146a <HAL_RCC_OscConfig+0xa2>
 800147a:	e7e6      	b.n	800144a <HAL_RCC_OscConfig+0x82>
 800147c:	f5b3 2fa0 	cmp.w	r3, #327680	; 0x50000
 8001480:	6823      	ldr	r3, [r4, #0]
 8001482:	d103      	bne.n	800148c <HAL_RCC_OscConfig+0xc4>
 8001484:	f443 2380 	orr.w	r3, r3, #262144	; 0x40000
 8001488:	6023      	str	r3, [r4, #0]
 800148a:	e7cf      	b.n	800142c <HAL_RCC_OscConfig+0x64>
 800148c:	f423 3380 	bic.w	r3, r3, #65536	; 0x10000
 8001490:	6023      	str	r3, [r4, #0]
 8001492:	6823      	ldr	r3, [r4, #0]
 8001494:	f423 2380 	bic.w	r3, r3, #262144	; 0x40000
 8001498:	e7cb      	b.n	8001432 <HAL_RCC_OscConfig+0x6a>
 800149a:	4c68      	ldr	r4, [pc, #416]	; (800163c <HAL_RCC_OscConfig+0x274>)
 800149c:	6863      	ldr	r3, [r4, #4]
 800149e:	f013 0f0c 	tst.w	r3, #12
 80014a2:	d007      	beq.n	80014b4 <HAL_RCC_OscConfig+0xec>
 80014a4:	6863      	ldr	r3, [r4, #4]
 80014a6:	f003 030c 	and.w	r3, r3, #12
 80014aa:	2b08      	cmp	r3, #8
 80014ac:	d110      	bne.n	80014d0 <HAL_RCC_OscConfig+0x108>
 80014ae:	6863      	ldr	r3, [r4, #4]
 80014b0:	03da      	lsls	r2, r3, #15
 80014b2:	d40d      	bmi.n	80014d0 <HAL_RCC_OscConfig+0x108>
 80014b4:	6823      	ldr	r3, [r4, #0]
 80014b6:	079b      	lsls	r3, r3, #30
 80014b8:	d502      	bpl.n	80014c0 <HAL_RCC_OscConfig+0xf8>
 80014ba:	692b      	ldr	r3, [r5, #16]
 80014bc:	2b01      	cmp	r3, #1
 80014be:	d1af      	bne.n	8001420 <HAL_RCC_OscConfig+0x58>
 80014c0:	6823      	ldr	r3, [r4, #0]
 80014c2:	696a      	ldr	r2, [r5, #20]
 80014c4:	f023 03f8 	bic.w	r3, r3, #248	; 0xf8
 80014c8:	ea43 03c2 	orr.w	r3, r3, r2, lsl #3
 80014cc:	6023      	str	r3, [r4, #0]
 80014ce:	e785      	b.n	80013dc <HAL_RCC_OscConfig+0x14>
 80014d0:	692a      	ldr	r2, [r5, #16]
 80014d2:	4b5b      	ldr	r3, [pc, #364]	; (8001640 <HAL_RCC_OscConfig+0x278>)
 80014d4:	b16a      	cbz	r2, 80014f2 <HAL_RCC_OscConfig+0x12a>
 80014d6:	2201      	movs	r2, #1
 80014d8:	601a      	str	r2, [r3, #0]
 80014da:	f7fe ff87 	bl	80003ec <HAL_GetTick>
 80014de:	4606      	mov	r6, r0
 80014e0:	6823      	ldr	r3, [r4, #0]
 80014e2:	079f      	lsls	r7, r3, #30
 80014e4:	d4ec      	bmi.n	80014c0 <HAL_RCC_OscConfig+0xf8>
 80014e6:	f7fe ff81 	bl	80003ec <HAL_GetTick>
 80014ea:	1b80      	subs	r0, r0, r6
 80014ec:	2802      	cmp	r0, #2
 80014ee:	d9f7      	bls.n	80014e0 <HAL_RCC_OscConfig+0x118>
 80014f0:	e7ab      	b.n	800144a <HAL_RCC_OscConfig+0x82>
 80014f2:	601a      	str	r2, [r3, #0]
 80014f4:	f7fe ff7a 	bl	80003ec <HAL_GetTick>
 80014f8:	4606      	mov	r6, r0
 80014fa:	6823      	ldr	r3, [r4, #0]
 80014fc:	0798      	lsls	r0, r3, #30
 80014fe:	f57f af6d 	bpl.w	80013dc <HAL_RCC_OscConfig+0x14>
 8001502:	f7fe ff73 	bl	80003ec <HAL_GetTick>
 8001506:	1b80      	subs	r0, r0, r6
 8001508:	2802      	cmp	r0, #2
 800150a:	d9f6      	bls.n	80014fa <HAL_RCC_OscConfig+0x132>
 800150c:	e79d      	b.n	800144a <HAL_RCC_OscConfig+0x82>
 800150e:	69aa      	ldr	r2, [r5, #24]
 8001510:	4e4a      	ldr	r6, [pc, #296]	; (800163c <HAL_RCC_OscConfig+0x274>)
 8001512:	4b4b      	ldr	r3, [pc, #300]	; (8001640 <HAL_RCC_OscConfig+0x278>)
 8001514:	b1e2      	cbz	r2, 8001550 <HAL_RCC_OscConfig+0x188>
 8001516:	2201      	movs	r2, #1
 8001518:	f8c3 2480 	str.w	r2, [r3, #1152]	; 0x480
 800151c:	f7fe ff66 	bl	80003ec <HAL_GetTick>
 8001520:	4604      	mov	r4, r0
 8001522:	6a73      	ldr	r3, [r6, #36]	; 0x24
 8001524:	079b      	lsls	r3, r3, #30
 8001526:	d50d      	bpl.n	8001544 <HAL_RCC_OscConfig+0x17c>
 8001528:	f44f 52fa 	mov.w	r2, #8000	; 0x1f40
 800152c:	4b45      	ldr	r3, [pc, #276]	; (8001644 <HAL_RCC_OscConfig+0x27c>)
 800152e:	681b      	ldr	r3, [r3, #0]
 8001530:	fbb3 f3f2 	udiv	r3, r3, r2
 8001534:	9301      	str	r3, [sp, #4]
 8001536:	bf00      	nop
 8001538:	9b01      	ldr	r3, [sp, #4]
 800153a:	1e5a      	subs	r2, r3, #1
 800153c:	9201      	str	r2, [sp, #4]
 800153e:	2b00      	cmp	r3, #0
 8001540:	d1f9      	bne.n	8001536 <HAL_RCC_OscConfig+0x16e>
 8001542:	e74f      	b.n	80013e4 <HAL_RCC_OscConfig+0x1c>
 8001544:	f7fe ff52 	bl	80003ec <HAL_GetTick>
 8001548:	1b00      	subs	r0, r0, r4
 800154a:	2802      	cmp	r0, #2
 800154c:	d9e9      	bls.n	8001522 <HAL_RCC_OscConfig+0x15a>
 800154e:	e77c      	b.n	800144a <HAL_RCC_OscConfig+0x82>
 8001550:	f8c3 2480 	str.w	r2, [r3, #1152]	; 0x480
 8001554:	f7fe ff4a 	bl	80003ec <HAL_GetTick>
 8001558:	4604      	mov	r4, r0
 800155a:	6a73      	ldr	r3, [r6, #36]	; 0x24
 800155c:	079f      	lsls	r7, r3, #30
 800155e:	f57f af41 	bpl.w	80013e4 <HAL_RCC_OscConfig+0x1c>
 8001562:	f7fe ff43 	bl	80003ec <HAL_GetTick>
 8001566:	1b00      	subs	r0, r0, r4
 8001568:	2802      	cmp	r0, #2
 800156a:	d9f6      	bls.n	800155a <HAL_RCC_OscConfig+0x192>
 800156c:	e76d      	b.n	800144a <HAL_RCC_OscConfig+0x82>
 800156e:	4c33      	ldr	r4, [pc, #204]	; (800163c <HAL_RCC_OscConfig+0x274>)
 8001570:	69e3      	ldr	r3, [r4, #28]
 8001572:	00d8      	lsls	r0, r3, #3
 8001574:	d424      	bmi.n	80015c0 <HAL_RCC_OscConfig+0x1f8>
 8001576:	2701      	movs	r7, #1
 8001578:	69e3      	ldr	r3, [r4, #28]
 800157a:	f043 5380 	orr.w	r3, r3, #268435456	; 0x10000000
 800157e:	61e3      	str	r3, [r4, #28]
 8001580:	69e3      	ldr	r3, [r4, #28]
 8001582:	f003 5380 	and.w	r3, r3, #268435456	; 0x10000000
 8001586:	9300      	str	r3, [sp, #0]
 8001588:	9b00      	ldr	r3, [sp, #0]
 800158a:	4e2f      	ldr	r6, [pc, #188]	; (8001648 <HAL_RCC_OscConfig+0x280>)
 800158c:	6833      	ldr	r3, [r6, #0]
 800158e:	05d9      	lsls	r1, r3, #23
 8001590:	d518      	bpl.n	80015c4 <HAL_RCC_OscConfig+0x1fc>
 8001592:	68eb      	ldr	r3, [r5, #12]
 8001594:	2b01      	cmp	r3, #1
 8001596:	d126      	bne.n	80015e6 <HAL_RCC_OscConfig+0x21e>
 8001598:	6a23      	ldr	r3, [r4, #32]
 800159a:	f043 0301 	orr.w	r3, r3, #1
 800159e:	6223      	str	r3, [r4, #32]
 80015a0:	f7fe ff24 	bl	80003ec <HAL_GetTick>
 80015a4:	f241 3888 	movw	r8, #5000	; 0x1388
 80015a8:	4606      	mov	r6, r0
 80015aa:	6a23      	ldr	r3, [r4, #32]
 80015ac:	079b      	lsls	r3, r3, #30
 80015ae:	d53f      	bpl.n	8001630 <HAL_RCC_OscConfig+0x268>
 80015b0:	2f00      	cmp	r7, #0
 80015b2:	f43f af1b 	beq.w	80013ec <HAL_RCC_OscConfig+0x24>
 80015b6:	69e3      	ldr	r3, [r4, #28]
 80015b8:	f023 5380 	bic.w	r3, r3, #268435456	; 0x10000000
 80015bc:	61e3      	str	r3, [r4, #28]
 80015be:	e715      	b.n	80013ec <HAL_RCC_OscConfig+0x24>
 80015c0:	2700      	movs	r7, #0
 80015c2:	e7e2      	b.n	800158a <HAL_RCC_OscConfig+0x1c2>
 80015c4:	6833      	ldr	r3, [r6, #0]
 80015c6:	f443 7380 	orr.w	r3, r3, #256	; 0x100
 80015ca:	6033      	str	r3, [r6, #0]
 80015cc:	f7fe ff0e 	bl	80003ec <HAL_GetTick>
 80015d0:	4680      	mov	r8, r0
 80015d2:	6833      	ldr	r3, [r6, #0]
 80015d4:	05da      	lsls	r2, r3, #23
 80015d6:	d4dc      	bmi.n	8001592 <HAL_RCC_OscConfig+0x1ca>
 80015d8:	f7fe ff08 	bl	80003ec <HAL_GetTick>
 80015dc:	eba0 0008 	sub.w	r0, r0, r8
 80015e0:	2864      	cmp	r0, #100	; 0x64
 80015e2:	d9f6      	bls.n	80015d2 <HAL_RCC_OscConfig+0x20a>
 80015e4:	e731      	b.n	800144a <HAL_RCC_OscConfig+0x82>
 80015e6:	b9ab      	cbnz	r3, 8001614 <HAL_RCC_OscConfig+0x24c>
 80015e8:	6a23      	ldr	r3, [r4, #32]
 80015ea:	f241 3888 	movw	r8, #5000	; 0x1388
 80015ee:	f023 0301 	bic.w	r3, r3, #1
 80015f2:	6223      	str	r3, [r4, #32]
 80015f4:	6a23      	ldr	r3, [r4, #32]
 80015f6:	f023 0304 	bic.w	r3, r3, #4
 80015fa:	6223      	str	r3, [r4, #32]
 80015fc:	f7fe fef6 	bl	80003ec <HAL_GetTick>
 8001600:	4606      	mov	r6, r0
 8001602:	6a23      	ldr	r3, [r4, #32]
 8001604:	0798      	lsls	r0, r3, #30
 8001606:	d5d3      	bpl.n	80015b0 <HAL_RCC_OscConfig+0x1e8>
 8001608:	f7fe fef0 	bl	80003ec <HAL_GetTick>
 800160c:	1b80      	subs	r0, r0, r6
 800160e:	4540      	cmp	r0, r8
 8001610:	d9f7      	bls.n	8001602 <HAL_RCC_OscConfig+0x23a>
 8001612:	e71a      	b.n	800144a <HAL_RCC_OscConfig+0x82>
 8001614:	2b05      	cmp	r3, #5
 8001616:	6a23      	ldr	r3, [r4, #32]
 8001618:	d103      	bne.n	8001622 <HAL_RCC_OscConfig+0x25a>
 800161a:	f043 0304 	orr.w	r3, r3, #4
 800161e:	6223      	str	r3, [r4, #32]
 8001620:	e7ba      	b.n	8001598 <HAL_RCC_OscConfig+0x1d0>
 8001622:	f023 0301 	bic.w	r3, r3, #1
 8001626:	6223      	str	r3, [r4, #32]
 8001628:	6a23      	ldr	r3, [r4, #32]
 800162a:	f023 0304 	bic.w	r3, r3, #4
 800162e:	e7b6      	b.n	800159e <HAL_RCC_OscConfig+0x1d6>
 8001630:	f7fe fedc 	bl	80003ec <HAL_GetTick>
 8001634:	1b80      	subs	r0, r0, r6
 8001636:	4540      	cmp	r0, r8
 8001638:	d9b7      	bls.n	80015aa <HAL_RCC_OscConfig+0x1e2>
 800163a:	e706      	b.n	800144a <HAL_RCC_OscConfig+0x82>
 800163c:	40021000 	.word	0x40021000
 8001640:	42420000 	.word	0x42420000
 8001644:	20000000 	.word	0x20000000
 8001648:	40007000 	.word	0x40007000
 800164c:	4c2a      	ldr	r4, [pc, #168]	; (80016f8 <HAL_RCC_OscConfig+0x330>)
 800164e:	6863      	ldr	r3, [r4, #4]
 8001650:	f003 030c 	and.w	r3, r3, #12
 8001654:	2b08      	cmp	r3, #8
 8001656:	d03e      	beq.n	80016d6 <HAL_RCC_OscConfig+0x30e>
 8001658:	2200      	movs	r2, #0
 800165a:	4b28      	ldr	r3, [pc, #160]	; (80016fc <HAL_RCC_OscConfig+0x334>)
 800165c:	2802      	cmp	r0, #2
 800165e:	661a      	str	r2, [r3, #96]	; 0x60
 8001660:	d12c      	bne.n	80016bc <HAL_RCC_OscConfig+0x2f4>
 8001662:	f7fe fec3 	bl	80003ec <HAL_GetTick>
 8001666:	4606      	mov	r6, r0
 8001668:	6823      	ldr	r3, [r4, #0]
 800166a:	0199      	lsls	r1, r3, #6
 800166c:	d420      	bmi.n	80016b0 <HAL_RCC_OscConfig+0x2e8>
 800166e:	6a2b      	ldr	r3, [r5, #32]
 8001670:	f5b3 3f80 	cmp.w	r3, #65536	; 0x10000
 8001674:	d105      	bne.n	8001682 <HAL_RCC_OscConfig+0x2ba>
 8001676:	6862      	ldr	r2, [r4, #4]
 8001678:	68a9      	ldr	r1, [r5, #8]
 800167a:	f422 3200 	bic.w	r2, r2, #131072	; 0x20000
 800167e:	430a      	orrs	r2, r1
 8001680:	6062      	str	r2, [r4, #4]
 8001682:	6a69      	ldr	r1, [r5, #36]	; 0x24
 8001684:	6862      	ldr	r2, [r4, #4]
 8001686:	430b      	orrs	r3, r1
 8001688:	f422 1274 	bic.w	r2, r2, #3997696	; 0x3d0000
 800168c:	4313      	orrs	r3, r2
 800168e:	2201      	movs	r2, #1
 8001690:	6063      	str	r3, [r4, #4]
 8001692:	4b1a      	ldr	r3, [pc, #104]	; (80016fc <HAL_RCC_OscConfig+0x334>)
 8001694:	661a      	str	r2, [r3, #96]	; 0x60
 8001696:	f7fe fea9 	bl	80003ec <HAL_GetTick>
 800169a:	4605      	mov	r5, r0
 800169c:	6823      	ldr	r3, [r4, #0]
 800169e:	019a      	lsls	r2, r3, #6
 80016a0:	f53f aea8 	bmi.w	80013f4 <HAL_RCC_OscConfig+0x2c>
 80016a4:	f7fe fea2 	bl	80003ec <HAL_GetTick>
 80016a8:	1b40      	subs	r0, r0, r5
 80016aa:	2802      	cmp	r0, #2
 80016ac:	d9f6      	bls.n	800169c <HAL_RCC_OscConfig+0x2d4>
 80016ae:	e6cc      	b.n	800144a <HAL_RCC_OscConfig+0x82>
 80016b0:	f7fe fe9c 	bl	80003ec <HAL_GetTick>
 80016b4:	1b80      	subs	r0, r0, r6
 80016b6:	2802      	cmp	r0, #2
 80016b8:	d9d6      	bls.n	8001668 <HAL_RCC_OscConfig+0x2a0>
 80016ba:	e6c6      	b.n	800144a <HAL_RCC_OscConfig+0x82>
 80016bc:	f7fe fe96 	bl	80003ec <HAL_GetTick>
 80016c0:	4605      	mov	r5, r0
 80016c2:	6823      	ldr	r3, [r4, #0]
 80016c4:	019b      	lsls	r3, r3, #6
 80016c6:	f57f ae95 	bpl.w	80013f4 <HAL_RCC_OscConfig+0x2c>
 80016ca:	f7fe fe8f 	bl	80003ec <HAL_GetTick>
 80016ce:	1b40      	subs	r0, r0, r5
 80016d0:	2802      	cmp	r0, #2
 80016d2:	d9f6      	bls.n	80016c2 <HAL_RCC_OscConfig+0x2fa>
 80016d4:	e6b9      	b.n	800144a <HAL_RCC_OscConfig+0x82>
 80016d6:	2801      	cmp	r0, #1
 80016d8:	f43f aeb8 	beq.w	800144c <HAL_RCC_OscConfig+0x84>
 80016dc:	6863      	ldr	r3, [r4, #4]
 80016de:	6a2a      	ldr	r2, [r5, #32]
 80016e0:	f403 3180 	and.w	r1, r3, #65536	; 0x10000
 80016e4:	4291      	cmp	r1, r2
 80016e6:	f47f ae9b 	bne.w	8001420 <HAL_RCC_OscConfig+0x58>
 80016ea:	6a6a      	ldr	r2, [r5, #36]	; 0x24
 80016ec:	f403 1370 	and.w	r3, r3, #3932160	; 0x3c0000
 80016f0:	4293      	cmp	r3, r2
 80016f2:	f43f ae7f 	beq.w	80013f4 <HAL_RCC_OscConfig+0x2c>
 80016f6:	e693      	b.n	8001420 <HAL_RCC_OscConfig+0x58>
 80016f8:	40021000 	.word	0x40021000
 80016fc:	42420000 	.word	0x42420000

08001700 <HAL_RCC_GetSysClockFreq>:
 8001700:	4a0d      	ldr	r2, [pc, #52]	; (8001738 <HAL_RCC_GetSysClockFreq+0x38>)
 8001702:	6853      	ldr	r3, [r2, #4]
 8001704:	f003 010c 	and.w	r1, r3, #12
 8001708:	2908      	cmp	r1, #8
 800170a:	d112      	bne.n	8001732 <HAL_RCC_GetSysClockFreq+0x32>
 800170c:	480b      	ldr	r0, [pc, #44]	; (800173c <HAL_RCC_GetSysClockFreq+0x3c>)
 800170e:	f3c3 4183 	ubfx	r1, r3, #18, #4
 8001712:	03db      	lsls	r3, r3, #15
 8001714:	5c40      	ldrb	r0, [r0, r1]
 8001716:	d509      	bpl.n	800172c <HAL_RCC_GetSysClockFreq+0x2c>
 8001718:	6853      	ldr	r3, [r2, #4]
 800171a:	4a09      	ldr	r2, [pc, #36]	; (8001740 <HAL_RCC_GetSysClockFreq+0x40>)
 800171c:	f3c3 4340 	ubfx	r3, r3, #17, #1
 8001720:	4350      	muls	r0, r2
 8001722:	4a08      	ldr	r2, [pc, #32]	; (8001744 <HAL_RCC_GetSysClockFreq+0x44>)
 8001724:	5cd3      	ldrb	r3, [r2, r3]
 8001726:	fbb0 f0f3 	udiv	r0, r0, r3
 800172a:	4770      	bx	lr
 800172c:	4b06      	ldr	r3, [pc, #24]	; (8001748 <HAL_RCC_GetSysClockFreq+0x48>)
 800172e:	4358      	muls	r0, r3
 8001730:	4770      	bx	lr
 8001732:	4803      	ldr	r0, [pc, #12]	; (8001740 <HAL_RCC_GetSysClockFreq+0x40>)
 8001734:	4770      	bx	lr
 8001736:	bf00      	nop
 8001738:	40021000 	.word	0x40021000
 800173c:	08002fdc 	.word	0x08002fdc
 8001740:	007a1200 	.word	0x007a1200
 8001744:	08002fec 	.word	0x08002fec
 8001748:	003d0900 	.word	0x003d0900

0800174c <HAL_RCC_ClockConfig>:
 800174c:	e92d 41f0 	stmdb	sp!, {r4, r5, r6, r7, r8, lr}
 8001750:	460d      	mov	r5, r1
 8001752:	4604      	mov	r4, r0
 8001754:	b910      	cbnz	r0, 800175c <HAL_RCC_ClockConfig+0x10>
 8001756:	2001      	movs	r0, #1
 8001758:	e8bd 81f0 	ldmia.w	sp!, {r4, r5, r6, r7, r8, pc}
 800175c:	4a44      	ldr	r2, [pc, #272]	; (8001870 <HAL_RCC_ClockConfig+0x124>)
 800175e:	6813      	ldr	r3, [r2, #0]
 8001760:	f003 0307 	and.w	r3, r3, #7
 8001764:	428b      	cmp	r3, r1
 8001766:	d328      	bcc.n	80017ba <HAL_RCC_ClockConfig+0x6e>
 8001768:	6821      	ldr	r1, [r4, #0]
 800176a:	078e      	lsls	r6, r1, #30
 800176c:	d430      	bmi.n	80017d0 <HAL_RCC_ClockConfig+0x84>
 800176e:	07ca      	lsls	r2, r1, #31
 8001770:	d443      	bmi.n	80017fa <HAL_RCC_ClockConfig+0xae>
 8001772:	4a3f      	ldr	r2, [pc, #252]	; (8001870 <HAL_RCC_ClockConfig+0x124>)
 8001774:	6813      	ldr	r3, [r2, #0]
 8001776:	f003 0307 	and.w	r3, r3, #7
 800177a:	42ab      	cmp	r3, r5
 800177c:	d865      	bhi.n	800184a <HAL_RCC_ClockConfig+0xfe>
 800177e:	6822      	ldr	r2, [r4, #0]
 8001780:	4d3c      	ldr	r5, [pc, #240]	; (8001874 <HAL_RCC_ClockConfig+0x128>)
 8001782:	f012 0f04 	tst.w	r2, #4
 8001786:	d16c      	bne.n	8001862 <HAL_RCC_ClockConfig+0x116>
 8001788:	0713      	lsls	r3, r2, #28
 800178a:	d506      	bpl.n	800179a <HAL_RCC_ClockConfig+0x4e>
 800178c:	686b      	ldr	r3, [r5, #4]
 800178e:	6922      	ldr	r2, [r4, #16]
 8001790:	f423 5360 	bic.w	r3, r3, #14336	; 0x3800
 8001794:	ea43 03c2 	orr.w	r3, r3, r2, lsl #3
 8001798:	606b      	str	r3, [r5, #4]
 800179a:	f7ff ffb1 	bl	8001700 <HAL_RCC_GetSysClockFreq>
 800179e:	686b      	ldr	r3, [r5, #4]
 80017a0:	4a35      	ldr	r2, [pc, #212]	; (8001878 <HAL_RCC_ClockConfig+0x12c>)
 80017a2:	f3c3 1303 	ubfx	r3, r3, #4, #4
 80017a6:	5cd3      	ldrb	r3, [r2, r3]
 80017a8:	40d8      	lsrs	r0, r3
 80017aa:	4b34      	ldr	r3, [pc, #208]	; (800187c <HAL_RCC_ClockConfig+0x130>)
 80017ac:	6018      	str	r0, [r3, #0]
 80017ae:	4b34      	ldr	r3, [pc, #208]	; (8001880 <HAL_RCC_ClockConfig+0x134>)
 80017b0:	6818      	ldr	r0, [r3, #0]
 80017b2:	f7fe fdd9 	bl	8000368 <HAL_InitTick>
 80017b6:	2000      	movs	r0, #0
 80017b8:	e7ce      	b.n	8001758 <HAL_RCC_ClockConfig+0xc>
 80017ba:	6813      	ldr	r3, [r2, #0]
 80017bc:	f023 0307 	bic.w	r3, r3, #7
 80017c0:	430b      	orrs	r3, r1
 80017c2:	6013      	str	r3, [r2, #0]
 80017c4:	6813      	ldr	r3, [r2, #0]
 80017c6:	f003 0307 	and.w	r3, r3, #7
 80017ca:	428b      	cmp	r3, r1
 80017cc:	d1c3      	bne.n	8001756 <HAL_RCC_ClockConfig+0xa>
 80017ce:	e7cb      	b.n	8001768 <HAL_RCC_ClockConfig+0x1c>
 80017d0:	4b28      	ldr	r3, [pc, #160]	; (8001874 <HAL_RCC_ClockConfig+0x128>)
 80017d2:	f011 0f04 	tst.w	r1, #4
 80017d6:	bf1e      	ittt	ne
 80017d8:	685a      	ldrne	r2, [r3, #4]
 80017da:	f442 62e0 	orrne.w	r2, r2, #1792	; 0x700
 80017de:	605a      	strne	r2, [r3, #4]
 80017e0:	0708      	lsls	r0, r1, #28
 80017e2:	bf42      	ittt	mi
 80017e4:	685a      	ldrmi	r2, [r3, #4]
 80017e6:	f442 5260 	orrmi.w	r2, r2, #14336	; 0x3800
 80017ea:	605a      	strmi	r2, [r3, #4]
 80017ec:	685a      	ldr	r2, [r3, #4]
 80017ee:	68a0      	ldr	r0, [r4, #8]
 80017f0:	f022 02f0 	bic.w	r2, r2, #240	; 0xf0
 80017f4:	4302      	orrs	r2, r0
 80017f6:	605a      	str	r2, [r3, #4]
 80017f8:	e7b9      	b.n	800176e <HAL_RCC_ClockConfig+0x22>
 80017fa:	6862      	ldr	r2, [r4, #4]
 80017fc:	4e1d      	ldr	r6, [pc, #116]	; (8001874 <HAL_RCC_ClockConfig+0x128>)
 80017fe:	2a01      	cmp	r2, #1
 8001800:	6833      	ldr	r3, [r6, #0]
 8001802:	d11a      	bne.n	800183a <HAL_RCC_ClockConfig+0xee>
 8001804:	f413 3f00 	tst.w	r3, #131072	; 0x20000
 8001808:	d0a5      	beq.n	8001756 <HAL_RCC_ClockConfig+0xa>
 800180a:	6873      	ldr	r3, [r6, #4]
 800180c:	f241 3888 	movw	r8, #5000	; 0x1388
 8001810:	f023 0303 	bic.w	r3, r3, #3
 8001814:	4313      	orrs	r3, r2
 8001816:	6073      	str	r3, [r6, #4]
 8001818:	f7fe fde8 	bl	80003ec <HAL_GetTick>
 800181c:	4607      	mov	r7, r0
 800181e:	6873      	ldr	r3, [r6, #4]
 8001820:	6862      	ldr	r2, [r4, #4]
 8001822:	f003 030c 	and.w	r3, r3, #12
 8001826:	ebb3 0f82 	cmp.w	r3, r2, lsl #2
 800182a:	d0a2      	beq.n	8001772 <HAL_RCC_ClockConfig+0x26>
 800182c:	f7fe fdde 	bl	80003ec <HAL_GetTick>
 8001830:	1bc0      	subs	r0, r0, r7
 8001832:	4540      	cmp	r0, r8
 8001834:	d9f3      	bls.n	800181e <HAL_RCC_ClockConfig+0xd2>
 8001836:	2003      	movs	r0, #3
 8001838:	e78e      	b.n	8001758 <HAL_RCC_ClockConfig+0xc>
 800183a:	2a02      	cmp	r2, #2
 800183c:	d102      	bne.n	8001844 <HAL_RCC_ClockConfig+0xf8>
 800183e:	f013 7f00 	tst.w	r3, #33554432	; 0x2000000
 8001842:	e7e1      	b.n	8001808 <HAL_RCC_ClockConfig+0xbc>
 8001844:	f013 0f02 	tst.w	r3, #2
 8001848:	e7de      	b.n	8001808 <HAL_RCC_ClockConfig+0xbc>
 800184a:	6813      	ldr	r3, [r2, #0]
 800184c:	f023 0307 	bic.w	r3, r3, #7
 8001850:	432b      	orrs	r3, r5
 8001852:	6013      	str	r3, [r2, #0]
 8001854:	6813      	ldr	r3, [r2, #0]
 8001856:	f003 0307 	and.w	r3, r3, #7
 800185a:	42ab      	cmp	r3, r5
 800185c:	f47f af7b 	bne.w	8001756 <HAL_RCC_ClockConfig+0xa>
 8001860:	e78d      	b.n	800177e <HAL_RCC_ClockConfig+0x32>
 8001862:	686b      	ldr	r3, [r5, #4]
 8001864:	68e1      	ldr	r1, [r4, #12]
 8001866:	f423 63e0 	bic.w	r3, r3, #1792	; 0x700
 800186a:	430b      	orrs	r3, r1
 800186c:	606b      	str	r3, [r5, #4]
 800186e:	e78b      	b.n	8001788 <HAL_RCC_ClockConfig+0x3c>
 8001870:	40022000 	.word	0x40022000
 8001874:	40021000 	.word	0x40021000
 8001878:	08002fcc 	.word	0x08002fcc
 800187c:	20000000 	.word	0x20000000
 8001880:	20000008 	.word	0x20000008

08001884 <HAL_RCCEx_PeriphCLKConfig>:
 8001884:	6803      	ldr	r3, [r0, #0]
 8001886:	e92d 41f3 	stmdb	sp!, {r0, r1, r4, r5, r6, r7, r8, lr}
 800188a:	07d9      	lsls	r1, r3, #31
 800188c:	4605      	mov	r5, r0
 800188e:	d521      	bpl.n	80018d4 <HAL_RCCEx_PeriphCLKConfig+0x50>
 8001890:	4c36      	ldr	r4, [pc, #216]	; (800196c <HAL_RCCEx_PeriphCLKConfig+0xe8>)
 8001892:	69e3      	ldr	r3, [r4, #28]
 8001894:	00da      	lsls	r2, r3, #3
 8001896:	d433      	bmi.n	8001900 <HAL_RCCEx_PeriphCLKConfig+0x7c>
 8001898:	2601      	movs	r6, #1
 800189a:	69e3      	ldr	r3, [r4, #28]
 800189c:	f043 5380 	orr.w	r3, r3, #268435456	; 0x10000000
 80018a0:	61e3      	str	r3, [r4, #28]
 80018a2:	69e3      	ldr	r3, [r4, #28]
 80018a4:	f003 5380 	and.w	r3, r3, #268435456	; 0x10000000
 80018a8:	9301      	str	r3, [sp, #4]
 80018aa:	9b01      	ldr	r3, [sp, #4]
 80018ac:	4f30      	ldr	r7, [pc, #192]	; (8001970 <HAL_RCCEx_PeriphCLKConfig+0xec>)
 80018ae:	683b      	ldr	r3, [r7, #0]
 80018b0:	05db      	lsls	r3, r3, #23
 80018b2:	d527      	bpl.n	8001904 <HAL_RCCEx_PeriphCLKConfig+0x80>
 80018b4:	6a23      	ldr	r3, [r4, #32]
 80018b6:	686a      	ldr	r2, [r5, #4]
 80018b8:	f413 7340 	ands.w	r3, r3, #768	; 0x300
 80018bc:	d136      	bne.n	800192c <HAL_RCCEx_PeriphCLKConfig+0xa8>
 80018be:	6a23      	ldr	r3, [r4, #32]
 80018c0:	686a      	ldr	r2, [r5, #4]
 80018c2:	f423 7340 	bic.w	r3, r3, #768	; 0x300
 80018c6:	4313      	orrs	r3, r2
 80018c8:	6223      	str	r3, [r4, #32]
 80018ca:	b11e      	cbz	r6, 80018d4 <HAL_RCCEx_PeriphCLKConfig+0x50>
 80018cc:	69e3      	ldr	r3, [r4, #28]
 80018ce:	f023 5380 	bic.w	r3, r3, #268435456	; 0x10000000
 80018d2:	61e3      	str	r3, [r4, #28]
 80018d4:	6828      	ldr	r0, [r5, #0]
 80018d6:	0783      	lsls	r3, r0, #30
 80018d8:	d506      	bpl.n	80018e8 <HAL_RCCEx_PeriphCLKConfig+0x64>
 80018da:	4924      	ldr	r1, [pc, #144]	; (800196c <HAL_RCCEx_PeriphCLKConfig+0xe8>)
 80018dc:	68ab      	ldr	r3, [r5, #8]
 80018de:	684a      	ldr	r2, [r1, #4]
 80018e0:	f422 4240 	bic.w	r2, r2, #49152	; 0xc000
 80018e4:	431a      	orrs	r2, r3
 80018e6:	604a      	str	r2, [r1, #4]
 80018e8:	f010 0010 	ands.w	r0, r0, #16
 80018ec:	d01b      	beq.n	8001926 <HAL_RCCEx_PeriphCLKConfig+0xa2>
 80018ee:	4a1f      	ldr	r2, [pc, #124]	; (800196c <HAL_RCCEx_PeriphCLKConfig+0xe8>)
 80018f0:	68e9      	ldr	r1, [r5, #12]
 80018f2:	6853      	ldr	r3, [r2, #4]
 80018f4:	2000      	movs	r0, #0
 80018f6:	f423 0380 	bic.w	r3, r3, #4194304	; 0x400000
 80018fa:	430b      	orrs	r3, r1
 80018fc:	6053      	str	r3, [r2, #4]
 80018fe:	e012      	b.n	8001926 <HAL_RCCEx_PeriphCLKConfig+0xa2>
 8001900:	2600      	movs	r6, #0
 8001902:	e7d3      	b.n	80018ac <HAL_RCCEx_PeriphCLKConfig+0x28>
 8001904:	683b      	ldr	r3, [r7, #0]
 8001906:	f443 7380 	orr.w	r3, r3, #256	; 0x100
 800190a:	603b      	str	r3, [r7, #0]
 800190c:	f7fe fd6e 	bl	80003ec <HAL_GetTick>
 8001910:	4680      	mov	r8, r0
 8001912:	683b      	ldr	r3, [r7, #0]
 8001914:	05d8      	lsls	r0, r3, #23
 8001916:	d4cd      	bmi.n	80018b4 <HAL_RCCEx_PeriphCLKConfig+0x30>
 8001918:	f7fe fd68 	bl	80003ec <HAL_GetTick>
 800191c:	eba0 0008 	sub.w	r0, r0, r8
 8001920:	2864      	cmp	r0, #100	; 0x64
 8001922:	d9f6      	bls.n	8001912 <HAL_RCCEx_PeriphCLKConfig+0x8e>
 8001924:	2003      	movs	r0, #3
 8001926:	b002      	add	sp, #8
 8001928:	e8bd 81f0 	ldmia.w	sp!, {r4, r5, r6, r7, r8, pc}
 800192c:	f402 7240 	and.w	r2, r2, #768	; 0x300
 8001930:	429a      	cmp	r2, r3
 8001932:	d0c4      	beq.n	80018be <HAL_RCCEx_PeriphCLKConfig+0x3a>
 8001934:	2001      	movs	r0, #1
 8001936:	4a0f      	ldr	r2, [pc, #60]	; (8001974 <HAL_RCCEx_PeriphCLKConfig+0xf0>)
 8001938:	6a23      	ldr	r3, [r4, #32]
 800193a:	f8c2 0440 	str.w	r0, [r2, #1088]	; 0x440
 800193e:	2000      	movs	r0, #0
 8001940:	f423 7140 	bic.w	r1, r3, #768	; 0x300
 8001944:	f8c2 0440 	str.w	r0, [r2, #1088]	; 0x440
 8001948:	6221      	str	r1, [r4, #32]
 800194a:	07d9      	lsls	r1, r3, #31
 800194c:	d5b7      	bpl.n	80018be <HAL_RCCEx_PeriphCLKConfig+0x3a>
 800194e:	f7fe fd4d 	bl	80003ec <HAL_GetTick>
 8001952:	f241 3888 	movw	r8, #5000	; 0x1388
 8001956:	4607      	mov	r7, r0
 8001958:	6a23      	ldr	r3, [r4, #32]
 800195a:	079a      	lsls	r2, r3, #30
 800195c:	d4af      	bmi.n	80018be <HAL_RCCEx_PeriphCLKConfig+0x3a>
 800195e:	f7fe fd45 	bl	80003ec <HAL_GetTick>
 8001962:	1bc0      	subs	r0, r0, r7
 8001964:	4540      	cmp	r0, r8
 8001966:	d9f7      	bls.n	8001958 <HAL_RCCEx_PeriphCLKConfig+0xd4>
 8001968:	e7dc      	b.n	8001924 <HAL_RCCEx_PeriphCLKConfig+0xa0>
 800196a:	bf00      	nop
 800196c:	40021000 	.word	0x40021000
 8001970:	40007000 	.word	0x40007000
 8001974:	42420000 	.word	0x42420000

08001978 <USB_CoreInit>:
 8001978:	b084      	sub	sp, #16
 800197a:	a801      	add	r0, sp, #4
 800197c:	e880 000e 	stmia.w	r0, {r1, r2, r3}
 8001980:	b004      	add	sp, #16
 8001982:	2000      	movs	r0, #0
 8001984:	4770      	bx	lr

08001986 <USB_EnableGlobalInt>:
 8001986:	4603      	mov	r3, r0
 8001988:	f44f 423f 	mov.w	r2, #48896	; 0xbf00
 800198c:	2000      	movs	r0, #0
 800198e:	f8a3 0044 	strh.w	r0, [r3, #68]	; 0x44
 8001992:	f8a3 2040 	strh.w	r2, [r3, #64]	; 0x40
 8001996:	4770      	bx	lr

08001998 <USB_DisableGlobalInt>:
 8001998:	f8b0 3040 	ldrh.w	r3, [r0, #64]	; 0x40
 800199c:	f423 537c 	bic.w	r3, r3, #16128	; 0x3f00
 80019a0:	045b      	lsls	r3, r3, #17
 80019a2:	0c5b      	lsrs	r3, r3, #17
 80019a4:	f8a0 3040 	strh.w	r3, [r0, #64]	; 0x40
 80019a8:	2000      	movs	r0, #0
 80019aa:	4770      	bx	lr

080019ac <USB_SetCurrentMode>:
 80019ac:	2000      	movs	r0, #0
 80019ae:	4770      	bx	lr

080019b0 <USB_DevInit>:
 80019b0:	b084      	sub	sp, #16
 80019b2:	b510      	push	{r4, lr}
 80019b4:	4604      	mov	r4, r0
 80019b6:	a803      	add	r0, sp, #12
 80019b8:	e880 000e 	stmia.w	r0, {r1, r2, r3}
 80019bc:	2000      	movs	r0, #0
 80019be:	2301      	movs	r3, #1
 80019c0:	f8a4 3040 	strh.w	r3, [r4, #64]	; 0x40
 80019c4:	f8a4 0040 	strh.w	r0, [r4, #64]	; 0x40
 80019c8:	f8a4 0044 	strh.w	r0, [r4, #68]	; 0x44
 80019cc:	f8a4 0050 	strh.w	r0, [r4, #80]	; 0x50
 80019d0:	e8bd 4010 	ldmia.w	sp!, {r4, lr}
 80019d4:	b004      	add	sp, #16
 80019d6:	4770      	bx	lr

080019d8 <USB_ActivateEndpoint>:
 80019d8:	b5f0      	push	{r4, r5, r6, r7, lr}
 80019da:	780a      	ldrb	r2, [r1, #0]
 80019dc:	78cd      	ldrb	r5, [r1, #3]
 80019de:	f830 4022 	ldrh.w	r4, [r0, r2, lsl #2]
 80019e2:	4603      	mov	r3, r0
 80019e4:	f424 44ec 	bic.w	r4, r4, #30208	; 0x7600
 80019e8:	f024 0470 	bic.w	r4, r4, #112	; 0x70
 80019ec:	0424      	lsls	r4, r4, #16
 80019ee:	0c24      	lsrs	r4, r4, #16
 80019f0:	2d03      	cmp	r5, #3
 80019f2:	d84b      	bhi.n	8001a8c <USB_ActivateEndpoint+0xb4>
 80019f4:	e8df f005 	tbb	[pc, r5]
 80019f8:	43454702 	.word	0x43454702
 80019fc:	4628      	mov	r0, r5
 80019fe:	f444 7400 	orr.w	r4, r4, #512	; 0x200
 8001a02:	f248 0680 	movw	r6, #32896	; 0x8080
 8001a06:	4334      	orrs	r4, r6
 8001a08:	f823 4022 	strh.w	r4, [r3, r2, lsl #2]
 8001a0c:	f833 4022 	ldrh.w	r4, [r3, r2, lsl #2]
 8001a10:	4f9e      	ldr	r7, [pc, #632]	; (8001c8c <USB_ActivateEndpoint+0x2b4>)
 8001a12:	b2a4      	uxth	r4, r4
 8001a14:	403c      	ands	r4, r7
 8001a16:	4314      	orrs	r4, r2
 8001a18:	4334      	orrs	r4, r6
 8001a1a:	f823 4022 	strh.w	r4, [r3, r2, lsl #2]
 8001a1e:	7b0c      	ldrb	r4, [r1, #12]
 8001a20:	eb03 1c02 	add.w	ip, r3, r2, lsl #4
 8001a24:	2c00      	cmp	r4, #0
 8001a26:	f040 808b 	bne.w	8001b40 <USB_ActivateEndpoint+0x168>
 8001a2a:	88cc      	ldrh	r4, [r1, #6]
 8001a2c:	784e      	ldrb	r6, [r1, #1]
 8001a2e:	0864      	lsrs	r4, r4, #1
 8001a30:	0064      	lsls	r4, r4, #1
 8001a32:	b36e      	cbz	r6, 8001a90 <USB_ActivateEndpoint+0xb8>
 8001a34:	f8b3 1050 	ldrh.w	r1, [r3, #80]	; 0x50
 8001a38:	b289      	uxth	r1, r1
 8001a3a:	4461      	add	r1, ip
 8001a3c:	f8a1 4400 	strh.w	r4, [r1, #1024]	; 0x400
 8001a40:	f833 1022 	ldrh.w	r1, [r3, r2, lsl #2]
 8001a44:	0649      	lsls	r1, r1, #25
 8001a46:	d509      	bpl.n	8001a5c <USB_ActivateEndpoint+0x84>
 8001a48:	f833 1022 	ldrh.w	r1, [r3, r2, lsl #2]
 8001a4c:	b289      	uxth	r1, r1
 8001a4e:	4039      	ands	r1, r7
 8001a50:	f441 4100 	orr.w	r1, r1, #32768	; 0x8000
 8001a54:	f041 01c0 	orr.w	r1, r1, #192	; 0xc0
 8001a58:	f823 1022 	strh.w	r1, [r3, r2, lsl #2]
 8001a5c:	f833 1022 	ldrh.w	r1, [r3, r2, lsl #2]
 8001a60:	4c8b      	ldr	r4, [pc, #556]	; (8001c90 <USB_ActivateEndpoint+0x2b8>)
 8001a62:	b289      	uxth	r1, r1
 8001a64:	2d01      	cmp	r5, #1
 8001a66:	ea01 0104 	and.w	r1, r1, r4
 8001a6a:	d001      	beq.n	8001a70 <USB_ActivateEndpoint+0x98>
 8001a6c:	f081 0120 	eor.w	r1, r1, #32
 8001a70:	f441 4100 	orr.w	r1, r1, #32768	; 0x8000
 8001a74:	f041 0180 	orr.w	r1, r1, #128	; 0x80
 8001a78:	f823 1022 	strh.w	r1, [r3, r2, lsl #2]
 8001a7c:	e04a      	b.n	8001b14 <USB_ActivateEndpoint+0x13c>
 8001a7e:	f444 64c0 	orr.w	r4, r4, #1536	; 0x600
 8001a82:	2000      	movs	r0, #0
 8001a84:	e7bd      	b.n	8001a02 <USB_ActivateEndpoint+0x2a>
 8001a86:	f444 6480 	orr.w	r4, r4, #1024	; 0x400
 8001a8a:	e7fa      	b.n	8001a82 <USB_ActivateEndpoint+0xaa>
 8001a8c:	2001      	movs	r0, #1
 8001a8e:	e7b8      	b.n	8001a02 <USB_ActivateEndpoint+0x2a>
 8001a90:	f8b3 5050 	ldrh.w	r5, [r3, #80]	; 0x50
 8001a94:	6909      	ldr	r1, [r1, #16]
 8001a96:	b2ad      	uxth	r5, r5
 8001a98:	4465      	add	r5, ip
 8001a9a:	f8a5 4408 	strh.w	r4, [r5, #1032]	; 0x408
 8001a9e:	f8b3 4050 	ldrh.w	r4, [r3, #80]	; 0x50
 8001aa2:	293e      	cmp	r1, #62	; 0x3e
 8001aa4:	b2a4      	uxth	r4, r4
 8001aa6:	4464      	add	r4, ip
 8001aa8:	f8b4 540c 	ldrh.w	r5, [r4, #1036]	; 0x40c
 8001aac:	f3c5 0509 	ubfx	r5, r5, #0, #10
 8001ab0:	f8a4 540c 	strh.w	r5, [r4, #1036]	; 0x40c
 8001ab4:	d92f      	bls.n	8001b16 <USB_ActivateEndpoint+0x13e>
 8001ab6:	094d      	lsrs	r5, r1, #5
 8001ab8:	06ce      	lsls	r6, r1, #27
 8001aba:	f8b4 140c 	ldrh.w	r1, [r4, #1036]	; 0x40c
 8001abe:	bf08      	it	eq
 8001ac0:	f105 35ff 	addeq.w	r5, r5, #4294967295
 8001ac4:	b289      	uxth	r1, r1
 8001ac6:	ea41 2185 	orr.w	r1, r1, r5, lsl #10
 8001aca:	ea6f 4141 	mvn.w	r1, r1, lsl #17
 8001ace:	ea6f 4151 	mvn.w	r1, r1, lsr #17
 8001ad2:	b289      	uxth	r1, r1
 8001ad4:	f8a4 140c 	strh.w	r1, [r4, #1036]	; 0x40c
 8001ad8:	f833 1022 	ldrh.w	r1, [r3, r2, lsl #2]
 8001adc:	044f      	lsls	r7, r1, #17
 8001ade:	d50d      	bpl.n	8001afc <USB_ActivateEndpoint+0x124>
 8001ae0:	f833 1022 	ldrh.w	r1, [r3, r2, lsl #2]
 8001ae4:	f421 41e0 	bic.w	r1, r1, #28672	; 0x7000
 8001ae8:	f021 0170 	bic.w	r1, r1, #112	; 0x70
 8001aec:	0409      	lsls	r1, r1, #16
 8001aee:	0c09      	lsrs	r1, r1, #16
 8001af0:	f441 4140 	orr.w	r1, r1, #49152	; 0xc000
 8001af4:	f041 0180 	orr.w	r1, r1, #128	; 0x80
 8001af8:	f823 1022 	strh.w	r1, [r3, r2, lsl #2]
 8001afc:	4c65      	ldr	r4, [pc, #404]	; (8001c94 <USB_ActivateEndpoint+0x2bc>)
 8001afe:	b9c2      	cbnz	r2, 8001b32 <USB_ActivateEndpoint+0x15a>
 8001b00:	881a      	ldrh	r2, [r3, #0]
 8001b02:	b292      	uxth	r2, r2
 8001b04:	4022      	ands	r2, r4
 8001b06:	f482 5240 	eor.w	r2, r2, #12288	; 0x3000
 8001b0a:	f442 4200 	orr.w	r2, r2, #32768	; 0x8000
 8001b0e:	f042 0280 	orr.w	r2, r2, #128	; 0x80
 8001b12:	801a      	strh	r2, [r3, #0]
 8001b14:	bdf0      	pop	{r4, r5, r6, r7, pc}
 8001b16:	b911      	cbnz	r1, 8001b1e <USB_ActivateEndpoint+0x146>
 8001b18:	f8b4 140c 	ldrh.w	r1, [r4, #1036]	; 0x40c
 8001b1c:	e7d5      	b.n	8001aca <USB_ActivateEndpoint+0xf2>
 8001b1e:	084d      	lsrs	r5, r1, #1
 8001b20:	07c9      	lsls	r1, r1, #31
 8001b22:	f8b4 140c 	ldrh.w	r1, [r4, #1036]	; 0x40c
 8001b26:	bf48      	it	mi
 8001b28:	3501      	addmi	r5, #1
 8001b2a:	b289      	uxth	r1, r1
 8001b2c:	ea41 2185 	orr.w	r1, r1, r5, lsl #10
 8001b30:	e7cf      	b.n	8001ad2 <USB_ActivateEndpoint+0xfa>
 8001b32:	f833 1022 	ldrh.w	r1, [r3, r2, lsl #2]
 8001b36:	b289      	uxth	r1, r1
 8001b38:	4021      	ands	r1, r4
 8001b3a:	f481 5100 	eor.w	r1, r1, #8192	; 0x2000
 8001b3e:	e797      	b.n	8001a70 <USB_ActivateEndpoint+0x98>
 8001b40:	2d02      	cmp	r5, #2
 8001b42:	f833 4022 	ldrh.w	r4, [r3, r2, lsl #2]
 8001b46:	d15b      	bne.n	8001c00 <USB_ActivateEndpoint+0x228>
 8001b48:	b2a4      	uxth	r4, r4
 8001b4a:	403c      	ands	r4, r7
 8001b4c:	f444 4401 	orr.w	r4, r4, #33024	; 0x8100
 8001b50:	f044 0480 	orr.w	r4, r4, #128	; 0x80
 8001b54:	f823 4022 	strh.w	r4, [r3, r2, lsl #2]
 8001b58:	f8b3 4050 	ldrh.w	r4, [r3, #80]	; 0x50
 8001b5c:	890e      	ldrh	r6, [r1, #8]
 8001b5e:	b2a4      	uxth	r4, r4
 8001b60:	0876      	lsrs	r6, r6, #1
 8001b62:	4464      	add	r4, ip
 8001b64:	0076      	lsls	r6, r6, #1
 8001b66:	f8a4 6400 	strh.w	r6, [r4, #1024]	; 0x400
 8001b6a:	894e      	ldrh	r6, [r1, #10]
 8001b6c:	f8b3 4050 	ldrh.w	r4, [r3, #80]	; 0x50
 8001b70:	0876      	lsrs	r6, r6, #1
 8001b72:	b2a4      	uxth	r4, r4
 8001b74:	4464      	add	r4, ip
 8001b76:	0076      	lsls	r6, r6, #1
 8001b78:	f8a4 6408 	strh.w	r6, [r4, #1032]	; 0x408
 8001b7c:	7849      	ldrb	r1, [r1, #1]
 8001b7e:	2900      	cmp	r1, #0
 8001b80:	d148      	bne.n	8001c14 <USB_ActivateEndpoint+0x23c>
 8001b82:	f833 1022 	ldrh.w	r1, [r3, r2, lsl #2]
 8001b86:	044e      	lsls	r6, r1, #17
 8001b88:	d50d      	bpl.n	8001ba6 <USB_ActivateEndpoint+0x1ce>
 8001b8a:	f833 1022 	ldrh.w	r1, [r3, r2, lsl #2]
 8001b8e:	f421 41e0 	bic.w	r1, r1, #28672	; 0x7000
 8001b92:	f021 0170 	bic.w	r1, r1, #112	; 0x70
 8001b96:	0409      	lsls	r1, r1, #16
 8001b98:	0c09      	lsrs	r1, r1, #16
 8001b9a:	f441 4140 	orr.w	r1, r1, #49152	; 0xc000
 8001b9e:	f041 0180 	orr.w	r1, r1, #128	; 0x80
 8001ba2:	f823 1022 	strh.w	r1, [r3, r2, lsl #2]
 8001ba6:	f833 1022 	ldrh.w	r1, [r3, r2, lsl #2]
 8001baa:	064d      	lsls	r5, r1, #25
 8001bac:	d50d      	bpl.n	8001bca <USB_ActivateEndpoint+0x1f2>
 8001bae:	f833 1022 	ldrh.w	r1, [r3, r2, lsl #2]
 8001bb2:	f421 41e0 	bic.w	r1, r1, #28672	; 0x7000
 8001bb6:	f021 0170 	bic.w	r1, r1, #112	; 0x70
 8001bba:	0409      	lsls	r1, r1, #16
 8001bbc:	0c09      	lsrs	r1, r1, #16
 8001bbe:	f441 4100 	orr.w	r1, r1, #32768	; 0x8000
 8001bc2:	f041 01c0 	orr.w	r1, r1, #192	; 0xc0
 8001bc6:	f823 1022 	strh.w	r1, [r3, r2, lsl #2]
 8001bca:	f248 0480 	movw	r4, #32896	; 0x8080
 8001bce:	f833 1022 	ldrh.w	r1, [r3, r2, lsl #2]
 8001bd2:	f421 4180 	bic.w	r1, r1, #16384	; 0x4000
 8001bd6:	f021 0170 	bic.w	r1, r1, #112	; 0x70
 8001bda:	0409      	lsls	r1, r1, #16
 8001bdc:	0c09      	lsrs	r1, r1, #16
 8001bde:	f481 5140 	eor.w	r1, r1, #12288	; 0x3000
 8001be2:	4321      	orrs	r1, r4
 8001be4:	f823 1022 	strh.w	r1, [r3, r2, lsl #2]
 8001be8:	f833 1022 	ldrh.w	r1, [r3, r2, lsl #2]
 8001bec:	f421 41e0 	bic.w	r1, r1, #28672	; 0x7000
 8001bf0:	f021 0140 	bic.w	r1, r1, #64	; 0x40
 8001bf4:	0409      	lsls	r1, r1, #16
 8001bf6:	0c09      	lsrs	r1, r1, #16
 8001bf8:	430c      	orrs	r4, r1
 8001bfa:	f823 4022 	strh.w	r4, [r3, r2, lsl #2]
 8001bfe:	e789      	b.n	8001b14 <USB_ActivateEndpoint+0x13c>
 8001c00:	f424 44e2 	bic.w	r4, r4, #28928	; 0x7100
 8001c04:	f024 0470 	bic.w	r4, r4, #112	; 0x70
 8001c08:	0424      	lsls	r4, r4, #16
 8001c0a:	0c24      	lsrs	r4, r4, #16
 8001c0c:	4326      	orrs	r6, r4
 8001c0e:	f823 6022 	strh.w	r6, [r3, r2, lsl #2]
 8001c12:	e7a1      	b.n	8001b58 <USB_ActivateEndpoint+0x180>
 8001c14:	f833 1022 	ldrh.w	r1, [r3, r2, lsl #2]
 8001c18:	044c      	lsls	r4, r1, #17
 8001c1a:	d50d      	bpl.n	8001c38 <USB_ActivateEndpoint+0x260>
 8001c1c:	f833 1022 	ldrh.w	r1, [r3, r2, lsl #2]
 8001c20:	f421 41e0 	bic.w	r1, r1, #28672	; 0x7000
 8001c24:	f021 0170 	bic.w	r1, r1, #112	; 0x70
 8001c28:	0409      	lsls	r1, r1, #16
 8001c2a:	0c09      	lsrs	r1, r1, #16
 8001c2c:	f441 4140 	orr.w	r1, r1, #49152	; 0xc000
 8001c30:	f041 0180 	orr.w	r1, r1, #128	; 0x80
 8001c34:	f823 1022 	strh.w	r1, [r3, r2, lsl #2]
 8001c38:	f833 1022 	ldrh.w	r1, [r3, r2, lsl #2]
 8001c3c:	0649      	lsls	r1, r1, #25
 8001c3e:	d50d      	bpl.n	8001c5c <USB_ActivateEndpoint+0x284>
 8001c40:	f833 1022 	ldrh.w	r1, [r3, r2, lsl #2]
 8001c44:	f421 41e0 	bic.w	r1, r1, #28672	; 0x7000
 8001c48:	f021 0170 	bic.w	r1, r1, #112	; 0x70
 8001c4c:	0409      	lsls	r1, r1, #16
 8001c4e:	0c09      	lsrs	r1, r1, #16
 8001c50:	f441 4100 	orr.w	r1, r1, #32768	; 0x8000
 8001c54:	f041 01c0 	orr.w	r1, r1, #192	; 0xc0
 8001c58:	f823 1022 	strh.w	r1, [r3, r2, lsl #2]
 8001c5c:	f833 1022 	ldrh.w	r1, [r3, r2, lsl #2]
 8001c60:	4c0b      	ldr	r4, [pc, #44]	; (8001c90 <USB_ActivateEndpoint+0x2b8>)
 8001c62:	b289      	uxth	r1, r1
 8001c64:	4021      	ands	r1, r4
 8001c66:	2d01      	cmp	r5, #1
 8001c68:	bf18      	it	ne
 8001c6a:	f081 0120 	eorne.w	r1, r1, #32
 8001c6e:	f441 4100 	orr.w	r1, r1, #32768	; 0x8000
 8001c72:	f041 0180 	orr.w	r1, r1, #128	; 0x80
 8001c76:	f823 1022 	strh.w	r1, [r3, r2, lsl #2]
 8001c7a:	f833 1022 	ldrh.w	r1, [r3, r2, lsl #2]
 8001c7e:	f421 4180 	bic.w	r1, r1, #16384	; 0x4000
 8001c82:	f021 0170 	bic.w	r1, r1, #112	; 0x70
 8001c86:	0409      	lsls	r1, r1, #16
 8001c88:	0c09      	lsrs	r1, r1, #16
 8001c8a:	e6f1      	b.n	8001a70 <USB_ActivateEndpoint+0x98>
 8001c8c:	ffff8f8f 	.word	0xffff8f8f
 8001c90:	ffff8fbf 	.word	0xffff8fbf
 8001c94:	ffffbf8f 	.word	0xffffbf8f

08001c98 <USB_DeactivateEndpoint>:
 8001c98:	784a      	ldrb	r2, [r1, #1]
 8001c9a:	780b      	ldrb	r3, [r1, #0]
 8001c9c:	7b09      	ldrb	r1, [r1, #12]
 8001c9e:	bbd9      	cbnz	r1, 8001d18 <USB_DeactivateEndpoint+0x80>
 8001ca0:	b30a      	cbz	r2, 8001ce6 <USB_DeactivateEndpoint+0x4e>
 8001ca2:	f830 2023 	ldrh.w	r2, [r0, r3, lsl #2]
 8001ca6:	0651      	lsls	r1, r2, #25
 8001ca8:	d50d      	bpl.n	8001cc6 <USB_DeactivateEndpoint+0x2e>
 8001caa:	f830 2023 	ldrh.w	r2, [r0, r3, lsl #2]
 8001cae:	f422 42e0 	bic.w	r2, r2, #28672	; 0x7000
 8001cb2:	f022 0270 	bic.w	r2, r2, #112	; 0x70
 8001cb6:	0412      	lsls	r2, r2, #16
 8001cb8:	0c12      	lsrs	r2, r2, #16
 8001cba:	f442 4200 	orr.w	r2, r2, #32768	; 0x8000
 8001cbe:	f042 02c0 	orr.w	r2, r2, #192	; 0xc0
 8001cc2:	f820 2023 	strh.w	r2, [r0, r3, lsl #2]
 8001cc6:	f830 2023 	ldrh.w	r2, [r0, r3, lsl #2]
 8001cca:	f422 42e0 	bic.w	r2, r2, #28672	; 0x7000
 8001cce:	f022 0240 	bic.w	r2, r2, #64	; 0x40
 8001cd2:	0412      	lsls	r2, r2, #16
 8001cd4:	0c12      	lsrs	r2, r2, #16
 8001cd6:	f442 4200 	orr.w	r2, r2, #32768	; 0x8000
 8001cda:	f042 0280 	orr.w	r2, r2, #128	; 0x80
 8001cde:	f820 2023 	strh.w	r2, [r0, r3, lsl #2]
 8001ce2:	2000      	movs	r0, #0
 8001ce4:	4770      	bx	lr
 8001ce6:	f830 2023 	ldrh.w	r2, [r0, r3, lsl #2]
 8001cea:	0452      	lsls	r2, r2, #17
 8001cec:	d50d      	bpl.n	8001d0a <USB_DeactivateEndpoint+0x72>
 8001cee:	f830 2023 	ldrh.w	r2, [r0, r3, lsl #2]
 8001cf2:	f422 42e0 	bic.w	r2, r2, #28672	; 0x7000
 8001cf6:	f022 0270 	bic.w	r2, r2, #112	; 0x70
 8001cfa:	0412      	lsls	r2, r2, #16
 8001cfc:	0c12      	lsrs	r2, r2, #16
 8001cfe:	f442 4240 	orr.w	r2, r2, #49152	; 0xc000
 8001d02:	f042 0280 	orr.w	r2, r2, #128	; 0x80
 8001d06:	f820 2023 	strh.w	r2, [r0, r3, lsl #2]
 8001d0a:	f830 2023 	ldrh.w	r2, [r0, r3, lsl #2]
 8001d0e:	f422 4280 	bic.w	r2, r2, #16384	; 0x4000
 8001d12:	f022 0270 	bic.w	r2, r2, #112	; 0x70
 8001d16:	e7dc      	b.n	8001cd2 <USB_DeactivateEndpoint+0x3a>
 8001d18:	2a00      	cmp	r2, #0
 8001d1a:	d14a      	bne.n	8001db2 <USB_DeactivateEndpoint+0x11a>
 8001d1c:	f830 2023 	ldrh.w	r2, [r0, r3, lsl #2]
 8001d20:	0451      	lsls	r1, r2, #17
 8001d22:	d50d      	bpl.n	8001d40 <USB_DeactivateEndpoint+0xa8>
 8001d24:	f830 2023 	ldrh.w	r2, [r0, r3, lsl #2]
 8001d28:	f422 42e0 	bic.w	r2, r2, #28672	; 0x7000
 8001d2c:	f022 0270 	bic.w	r2, r2, #112	; 0x70
 8001d30:	0412      	lsls	r2, r2, #16
 8001d32:	0c12      	lsrs	r2, r2, #16
 8001d34:	f442 4240 	orr.w	r2, r2, #49152	; 0xc000
 8001d38:	f042 0280 	orr.w	r2, r2, #128	; 0x80
 8001d3c:	f820 2023 	strh.w	r2, [r0, r3, lsl #2]
 8001d40:	f830 2023 	ldrh.w	r2, [r0, r3, lsl #2]
 8001d44:	0652      	lsls	r2, r2, #25
 8001d46:	d50d      	bpl.n	8001d64 <USB_DeactivateEndpoint+0xcc>
 8001d48:	f830 2023 	ldrh.w	r2, [r0, r3, lsl #2]
 8001d4c:	f422 42e0 	bic.w	r2, r2, #28672	; 0x7000
 8001d50:	f022 0270 	bic.w	r2, r2, #112	; 0x70
 8001d54:	0412      	lsls	r2, r2, #16
 8001d56:	0c12      	lsrs	r2, r2, #16
 8001d58:	f442 4200 	orr.w	r2, r2, #32768	; 0x8000
 8001d5c:	f042 02c0 	orr.w	r2, r2, #192	; 0xc0
 8001d60:	f820 2023 	strh.w	r2, [r0, r3, lsl #2]
 8001d64:	f248 0180 	movw	r1, #32896	; 0x8080
 8001d68:	f830 2023 	ldrh.w	r2, [r0, r3, lsl #2]
 8001d6c:	f422 42e0 	bic.w	r2, r2, #28672	; 0x7000
 8001d70:	f022 0270 	bic.w	r2, r2, #112	; 0x70
 8001d74:	0412      	lsls	r2, r2, #16
 8001d76:	0c12      	lsrs	r2, r2, #16
 8001d78:	f442 4200 	orr.w	r2, r2, #32768	; 0x8000
 8001d7c:	f042 02c0 	orr.w	r2, r2, #192	; 0xc0
 8001d80:	f820 2023 	strh.w	r2, [r0, r3, lsl #2]
 8001d84:	f830 2023 	ldrh.w	r2, [r0, r3, lsl #2]
 8001d88:	f422 4280 	bic.w	r2, r2, #16384	; 0x4000
 8001d8c:	f022 0270 	bic.w	r2, r2, #112	; 0x70
 8001d90:	0412      	lsls	r2, r2, #16
 8001d92:	0c12      	lsrs	r2, r2, #16
 8001d94:	430a      	orrs	r2, r1
 8001d96:	f820 2023 	strh.w	r2, [r0, r3, lsl #2]
 8001d9a:	f830 2023 	ldrh.w	r2, [r0, r3, lsl #2]
 8001d9e:	f422 42e0 	bic.w	r2, r2, #28672	; 0x7000
 8001da2:	f022 0240 	bic.w	r2, r2, #64	; 0x40
 8001da6:	0412      	lsls	r2, r2, #16
 8001da8:	0c12      	lsrs	r2, r2, #16
 8001daa:	4311      	orrs	r1, r2
 8001dac:	f820 1023 	strh.w	r1, [r0, r3, lsl #2]
 8001db0:	e797      	b.n	8001ce2 <USB_DeactivateEndpoint+0x4a>
 8001db2:	f830 2023 	ldrh.w	r2, [r0, r3, lsl #2]
 8001db6:	0451      	lsls	r1, r2, #17
 8001db8:	d50d      	bpl.n	8001dd6 <USB_DeactivateEndpoint+0x13e>
 8001dba:	f830 2023 	ldrh.w	r2, [r0, r3, lsl #2]
 8001dbe:	f422 42e0 	bic.w	r2, r2, #28672	; 0x7000
 8001dc2:	f022 0270 	bic.w	r2, r2, #112	; 0x70
 8001dc6:	0412      	lsls	r2, r2, #16
 8001dc8:	0c12      	lsrs	r2, r2, #16
 8001dca:	f442 4240 	orr.w	r2, r2, #49152	; 0xc000
 8001dce:	f042 0280 	orr.w	r2, r2, #128	; 0x80
 8001dd2:	f820 2023 	strh.w	r2, [r0, r3, lsl #2]
 8001dd6:	f830 2023 	ldrh.w	r2, [r0, r3, lsl #2]
 8001dda:	0652      	lsls	r2, r2, #25
 8001ddc:	d50d      	bpl.n	8001dfa <USB_DeactivateEndpoint+0x162>
 8001dde:	f830 2023 	ldrh.w	r2, [r0, r3, lsl #2]
 8001de2:	f422 42e0 	bic.w	r2, r2, #28672	; 0x7000
 8001de6:	f022 0270 	bic.w	r2, r2, #112	; 0x70
 8001dea:	0412      	lsls	r2, r2, #16
 8001dec:	0c12      	lsrs	r2, r2, #16
 8001dee:	f442 4200 	orr.w	r2, r2, #32768	; 0x8000
 8001df2:	f042 02c0 	orr.w	r2, r2, #192	; 0xc0
 8001df6:	f820 2023 	strh.w	r2, [r0, r3, lsl #2]
 8001dfa:	f248 0180 	movw	r1, #32896	; 0x8080
 8001dfe:	f830 2023 	ldrh.w	r2, [r0, r3, lsl #2]
 8001e02:	f422 42e0 	bic.w	r2, r2, #28672	; 0x7000
 8001e06:	f022 0270 	bic.w	r2, r2, #112	; 0x70
 8001e0a:	0412      	lsls	r2, r2, #16
 8001e0c:	0c12      	lsrs	r2, r2, #16
 8001e0e:	f442 4240 	orr.w	r2, r2, #49152	; 0xc000
 8001e12:	f042 0280 	orr.w	r2, r2, #128	; 0x80
 8001e16:	f820 2023 	strh.w	r2, [r0, r3, lsl #2]
 8001e1a:	f830 2023 	ldrh.w	r2, [r0, r3, lsl #2]
 8001e1e:	f422 42e0 	bic.w	r2, r2, #28672	; 0x7000
 8001e22:	f022 0240 	bic.w	r2, r2, #64	; 0x40
 8001e26:	0412      	lsls	r2, r2, #16
 8001e28:	0c12      	lsrs	r2, r2, #16
 8001e2a:	430a      	orrs	r2, r1
 8001e2c:	f820 2023 	strh.w	r2, [r0, r3, lsl #2]
 8001e30:	f830 2023 	ldrh.w	r2, [r0, r3, lsl #2]
 8001e34:	f422 4280 	bic.w	r2, r2, #16384	; 0x4000
 8001e38:	f022 0270 	bic.w	r2, r2, #112	; 0x70
 8001e3c:	e7b3      	b.n	8001da6 <USB_DeactivateEndpoint+0x10e>

08001e3e <USB_EPSetStall>:
 8001e3e:	784b      	ldrb	r3, [r1, #1]
 8001e40:	780a      	ldrb	r2, [r1, #0]
 8001e42:	b18b      	cbz	r3, 8001e68 <USB_EPSetStall+0x2a>
 8001e44:	f830 3022 	ldrh.w	r3, [r0, r2, lsl #2]
 8001e48:	f423 43e0 	bic.w	r3, r3, #28672	; 0x7000
 8001e4c:	f023 0340 	bic.w	r3, r3, #64	; 0x40
 8001e50:	041b      	lsls	r3, r3, #16
 8001e52:	0c1b      	lsrs	r3, r3, #16
 8001e54:	f083 0310 	eor.w	r3, r3, #16
 8001e58:	f443 4300 	orr.w	r3, r3, #32768	; 0x8000
 8001e5c:	f043 0380 	orr.w	r3, r3, #128	; 0x80
 8001e60:	f820 3022 	strh.w	r3, [r0, r2, lsl #2]
 8001e64:	2000      	movs	r0, #0
 8001e66:	4770      	bx	lr
 8001e68:	f830 3022 	ldrh.w	r3, [r0, r2, lsl #2]
 8001e6c:	f423 4380 	bic.w	r3, r3, #16384	; 0x4000
 8001e70:	f023 0370 	bic.w	r3, r3, #112	; 0x70
 8001e74:	041b      	lsls	r3, r3, #16
 8001e76:	0c1b      	lsrs	r3, r3, #16
 8001e78:	f483 5380 	eor.w	r3, r3, #4096	; 0x1000
 8001e7c:	e7ec      	b.n	8001e58 <USB_EPSetStall+0x1a>

08001e7e <USB_EPClearStall>:
 8001e7e:	7b0b      	ldrb	r3, [r1, #12]
 8001e80:	bb3b      	cbnz	r3, 8001ed2 <USB_EPClearStall+0x54>
 8001e82:	784b      	ldrb	r3, [r1, #1]
 8001e84:	780a      	ldrb	r2, [r1, #0]
 8001e86:	b333      	cbz	r3, 8001ed6 <USB_EPClearStall+0x58>
 8001e88:	f830 3022 	ldrh.w	r3, [r0, r2, lsl #2]
 8001e8c:	065b      	lsls	r3, r3, #25
 8001e8e:	d50d      	bpl.n	8001eac <USB_EPClearStall+0x2e>
 8001e90:	f830 3022 	ldrh.w	r3, [r0, r2, lsl #2]
 8001e94:	f423 43e0 	bic.w	r3, r3, #28672	; 0x7000
 8001e98:	f023 0370 	bic.w	r3, r3, #112	; 0x70
 8001e9c:	041b      	lsls	r3, r3, #16
 8001e9e:	0c1b      	lsrs	r3, r3, #16
 8001ea0:	f443 4300 	orr.w	r3, r3, #32768	; 0x8000
 8001ea4:	f043 03c0 	orr.w	r3, r3, #192	; 0xc0
 8001ea8:	f820 3022 	strh.w	r3, [r0, r2, lsl #2]
 8001eac:	78cb      	ldrb	r3, [r1, #3]
 8001eae:	2b01      	cmp	r3, #1
 8001eb0:	d00f      	beq.n	8001ed2 <USB_EPClearStall+0x54>
 8001eb2:	f830 3022 	ldrh.w	r3, [r0, r2, lsl #2]
 8001eb6:	f423 43e0 	bic.w	r3, r3, #28672	; 0x7000
 8001eba:	f023 0340 	bic.w	r3, r3, #64	; 0x40
 8001ebe:	041b      	lsls	r3, r3, #16
 8001ec0:	0c1b      	lsrs	r3, r3, #16
 8001ec2:	f083 0320 	eor.w	r3, r3, #32
 8001ec6:	f443 4300 	orr.w	r3, r3, #32768	; 0x8000
 8001eca:	f043 0380 	orr.w	r3, r3, #128	; 0x80
 8001ece:	f820 3022 	strh.w	r3, [r0, r2, lsl #2]
 8001ed2:	2000      	movs	r0, #0
 8001ed4:	4770      	bx	lr
 8001ed6:	f830 3022 	ldrh.w	r3, [r0, r2, lsl #2]
 8001eda:	045b      	lsls	r3, r3, #17
 8001edc:	d50d      	bpl.n	8001efa <USB_EPClearStall+0x7c>
 8001ede:	f830 3022 	ldrh.w	r3, [r0, r2, lsl #2]
 8001ee2:	f423 43e0 	bic.w	r3, r3, #28672	; 0x7000
 8001ee6:	f023 0370 	bic.w	r3, r3, #112	; 0x70
 8001eea:	041b      	lsls	r3, r3, #16
 8001eec:	0c1b      	lsrs	r3, r3, #16
 8001eee:	f443 4340 	orr.w	r3, r3, #49152	; 0xc000
 8001ef2:	f043 0380 	orr.w	r3, r3, #128	; 0x80
 8001ef6:	f820 3022 	strh.w	r3, [r0, r2, lsl #2]
 8001efa:	f830 3022 	ldrh.w	r3, [r0, r2, lsl #2]
 8001efe:	f423 4380 	bic.w	r3, r3, #16384	; 0x4000
 8001f02:	f023 0370 	bic.w	r3, r3, #112	; 0x70
 8001f06:	041b      	lsls	r3, r3, #16
 8001f08:	0c1b      	lsrs	r3, r3, #16
 8001f0a:	f483 5340 	eor.w	r3, r3, #12288	; 0x3000
 8001f0e:	e7da      	b.n	8001ec6 <USB_EPClearStall+0x48>

08001f10 <USB_SetDevAddress>:
 8001f10:	b911      	cbnz	r1, 8001f18 <USB_SetDevAddress+0x8>
 8001f12:	2380      	movs	r3, #128	; 0x80
 8001f14:	f8a0 304c 	strh.w	r3, [r0, #76]	; 0x4c
 8001f18:	2000      	movs	r0, #0
 8001f1a:	4770      	bx	lr

08001f1c <USB_DevConnect>:
 8001f1c:	2000      	movs	r0, #0
 8001f1e:	4770      	bx	lr

08001f20 <USB_DevDisconnect>:
 8001f20:	2000      	movs	r0, #0
 8001f22:	4770      	bx	lr

08001f24 <USB_ReadInterrupts>:
 8001f24:	f8b0 0044 	ldrh.w	r0, [r0, #68]	; 0x44
 8001f28:	b280      	uxth	r0, r0
 8001f2a:	4770      	bx	lr

08001f2c <USB_EP0_OutStart>:
 8001f2c:	2000      	movs	r0, #0
 8001f2e:	4770      	bx	lr

08001f30 <USB_WritePMA>:
 8001f30:	eb00 0042 	add.w	r0, r0, r2, lsl #1
 8001f34:	3301      	adds	r3, #1
 8001f36:	f500 6080 	add.w	r0, r0, #1024	; 0x400
 8001f3a:	085b      	lsrs	r3, r3, #1
 8001f3c:	eb00 0383 	add.w	r3, r0, r3, lsl #2
 8001f40:	4283      	cmp	r3, r0
 8001f42:	d100      	bne.n	8001f46 <USB_WritePMA+0x16>
 8001f44:	4770      	bx	lr
 8001f46:	f831 2b02 	ldrh.w	r2, [r1], #2
 8001f4a:	f820 2b04 	strh.w	r2, [r0], #4
 8001f4e:	e7f7      	b.n	8001f40 <USB_WritePMA+0x10>

08001f50 <USB_EPStartXfer>:
 8001f50:	e92d 47f0 	stmdb	sp!, {r4, r5, r6, r7, r8, r9, sl, lr}
 8001f54:	460c      	mov	r4, r1
 8001f56:	7849      	ldrb	r1, [r1, #1]
 8001f58:	4605      	mov	r5, r0
 8001f5a:	2901      	cmp	r1, #1
 8001f5c:	7b22      	ldrb	r2, [r4, #12]
 8001f5e:	f040 8118 	bne.w	8002192 <USB_EPStartXfer+0x242>
 8001f62:	f8d4 9010 	ldr.w	r9, [r4, #16]
 8001f66:	69a7      	ldr	r7, [r4, #24]
 8001f68:	6961      	ldr	r1, [r4, #20]
 8001f6a:	454f      	cmp	r7, r9
 8001f6c:	bf28      	it	cs
 8001f6e:	464f      	movcs	r7, r9
 8001f70:	bb0a      	cbnz	r2, 8001fb6 <USB_EPStartXfer+0x66>
 8001f72:	b2bf      	uxth	r7, r7
 8001f74:	88e2      	ldrh	r2, [r4, #6]
 8001f76:	463b      	mov	r3, r7
 8001f78:	f7ff ffda 	bl	8001f30 <USB_WritePMA>
 8001f7c:	f8b5 0050 	ldrh.w	r0, [r5, #80]	; 0x50
 8001f80:	7821      	ldrb	r1, [r4, #0]
 8001f82:	b280      	uxth	r0, r0
 8001f84:	f205 4204 	addw	r2, r5, #1028	; 0x404
 8001f88:	0109      	lsls	r1, r1, #4
 8001f8a:	4402      	add	r2, r0
 8001f8c:	528f      	strh	r7, [r1, r2]
 8001f8e:	7822      	ldrb	r2, [r4, #0]
 8001f90:	f835 3022 	ldrh.w	r3, [r5, r2, lsl #2]
 8001f94:	f423 43e0 	bic.w	r3, r3, #28672	; 0x7000
 8001f98:	f023 0340 	bic.w	r3, r3, #64	; 0x40
 8001f9c:	041b      	lsls	r3, r3, #16
 8001f9e:	0c1b      	lsrs	r3, r3, #16
 8001fa0:	f083 0330 	eor.w	r3, r3, #48	; 0x30
 8001fa4:	2000      	movs	r0, #0
 8001fa6:	f443 4300 	orr.w	r3, r3, #32768	; 0x8000
 8001faa:	f043 0380 	orr.w	r3, r3, #128	; 0x80
 8001fae:	f825 3022 	strh.w	r3, [r5, r2, lsl #2]
 8001fb2:	e8bd 87f0 	ldmia.w	sp!, {r4, r5, r6, r7, r8, r9, sl, pc}
 8001fb6:	78e3      	ldrb	r3, [r4, #3]
 8001fb8:	f894 e000 	ldrb.w	lr, [r4]
 8001fbc:	2b02      	cmp	r3, #2
 8001fbe:	6a26      	ldr	r6, [r4, #32]
 8001fc0:	ea4f 1c0e 	mov.w	ip, lr, lsl #4
 8001fc4:	f040 80d0 	bne.w	8002168 <USB_EPStartXfer+0x218>
 8001fc8:	45b1      	cmp	r9, r6
 8001fca:	f830 202e 	ldrh.w	r2, [r0, lr, lsl #2]
 8001fce:	f080 80b4 	bcs.w	800213a <USB_EPStartXfer+0x1ea>
 8001fd2:	f422 42e0 	bic.w	r2, r2, #28672	; 0x7000
 8001fd6:	f022 0270 	bic.w	r2, r2, #112	; 0x70
 8001fda:	0412      	lsls	r2, r2, #16
 8001fdc:	0c12      	lsrs	r2, r2, #16
 8001fde:	f442 4201 	orr.w	r2, r2, #33024	; 0x8100
 8001fe2:	f042 0280 	orr.w	r2, r2, #128	; 0x80
 8001fe6:	f820 202e 	strh.w	r2, [r0, lr, lsl #2]
 8001fea:	f830 802e 	ldrh.w	r8, [r0, lr, lsl #2]
 8001fee:	f8b0 e050 	ldrh.w	lr, [r0, #80]	; 0x50
 8001ff2:	1bf6      	subs	r6, r6, r7
 8001ff4:	f018 0840 	ands.w	r8, r8, #64	; 0x40
 8001ff8:	6226      	str	r6, [r4, #32]
 8001ffa:	eb01 0a07 	add.w	sl, r1, r7
 8001ffe:	b2bb      	uxth	r3, r7
 8002000:	fa1f fe8e 	uxth.w	lr, lr
 8002004:	d04e      	beq.n	80020a4 <USB_EPStartXfer+0x154>
 8002006:	f200 420c 	addw	r2, r0, #1036	; 0x40c
 800200a:	4472      	add	r2, lr
 800200c:	f822 300c 	strh.w	r3, [r2, ip]
 8002010:	8962      	ldrh	r2, [r4, #10]
 8002012:	f7ff ff8d 	bl	8001f30 <USB_WritePMA>
 8002016:	45b1      	cmp	r9, r6
 8002018:	bf36      	itet	cc
 800201a:	1bf3      	subcc	r3, r6, r7
 800201c:	2300      	movcs	r3, #0
 800201e:	463e      	movcc	r6, r7
 8002020:	7862      	ldrb	r2, [r4, #1]
 8002022:	6223      	str	r3, [r4, #32]
 8002024:	f8c4 a014 	str.w	sl, [r4, #20]
 8002028:	b2b3      	uxth	r3, r6
 800202a:	bb7a      	cbnz	r2, 800208c <USB_EPStartXfer+0x13c>
 800202c:	f8b5 2050 	ldrh.w	r2, [r5, #80]	; 0x50
 8002030:	7820      	ldrb	r0, [r4, #0]
 8002032:	b292      	uxth	r2, r2
 8002034:	f205 4104 	addw	r1, r5, #1028	; 0x404
 8002038:	0100      	lsls	r0, r0, #4
 800203a:	4411      	add	r1, r2
 800203c:	5a42      	ldrh	r2, [r0, r1]
 800203e:	2e3e      	cmp	r6, #62	; 0x3e
 8002040:	f3c2 0209 	ubfx	r2, r2, #0, #10
 8002044:	5242      	strh	r2, [r0, r1]
 8002046:	d915      	bls.n	8002074 <USB_EPStartXfer+0x124>
 8002048:	06f2      	lsls	r2, r6, #27
 800204a:	5a42      	ldrh	r2, [r0, r1]
 800204c:	ea4f 1756 	mov.w	r7, r6, lsr #5
 8002050:	bf08      	it	eq
 8002052:	f107 37ff 	addeq.w	r7, r7, #4294967295
 8002056:	b292      	uxth	r2, r2
 8002058:	ea42 2287 	orr.w	r2, r2, r7, lsl #10
 800205c:	ea6f 4242 	mvn.w	r2, r2, lsl #17
 8002060:	ea6f 4252 	mvn.w	r2, r2, lsr #17
 8002064:	b292      	uxth	r2, r2
 8002066:	5242      	strh	r2, [r0, r1]
 8002068:	8922      	ldrh	r2, [r4, #8]
 800206a:	4651      	mov	r1, sl
 800206c:	4628      	mov	r0, r5
 800206e:	f7ff ff5f 	bl	8001f30 <USB_WritePMA>
 8002072:	e78c      	b.n	8001f8e <USB_EPStartXfer+0x3e>
 8002074:	b90e      	cbnz	r6, 800207a <USB_EPStartXfer+0x12a>
 8002076:	5a42      	ldrh	r2, [r0, r1]
 8002078:	e7f0      	b.n	800205c <USB_EPStartXfer+0x10c>
 800207a:	5a42      	ldrh	r2, [r0, r1]
 800207c:	0877      	lsrs	r7, r6, #1
 800207e:	07f6      	lsls	r6, r6, #31
 8002080:	bf48      	it	mi
 8002082:	3701      	addmi	r7, #1
 8002084:	b292      	uxth	r2, r2
 8002086:	ea42 2287 	orr.w	r2, r2, r7, lsl #10
 800208a:	e7eb      	b.n	8002064 <USB_EPStartXfer+0x114>
 800208c:	2a01      	cmp	r2, #1
 800208e:	d1eb      	bne.n	8002068 <USB_EPStartXfer+0x118>
 8002090:	f8b5 0050 	ldrh.w	r0, [r5, #80]	; 0x50
 8002094:	7821      	ldrb	r1, [r4, #0]
 8002096:	b280      	uxth	r0, r0
 8002098:	f205 4204 	addw	r2, r5, #1028	; 0x404
 800209c:	0109      	lsls	r1, r1, #4
 800209e:	4402      	add	r2, r0
 80020a0:	528b      	strh	r3, [r1, r2]
 80020a2:	e7e1      	b.n	8002068 <USB_EPStartXfer+0x118>
 80020a4:	f200 4204 	addw	r2, r0, #1028	; 0x404
 80020a8:	4472      	add	r2, lr
 80020aa:	f822 300c 	strh.w	r3, [r2, ip]
 80020ae:	8922      	ldrh	r2, [r4, #8]
 80020b0:	f7ff ff3e 	bl	8001f30 <USB_WritePMA>
 80020b4:	45b1      	cmp	r9, r6
 80020b6:	bf36      	itet	cc
 80020b8:	1bf3      	subcc	r3, r6, r7
 80020ba:	4643      	movcs	r3, r8
 80020bc:	463e      	movcc	r6, r7
 80020be:	7862      	ldrb	r2, [r4, #1]
 80020c0:	6223      	str	r3, [r4, #32]
 80020c2:	f8c4 a014 	str.w	sl, [r4, #20]
 80020c6:	b2b3      	uxth	r3, r6
 80020c8:	bb5a      	cbnz	r2, 8002122 <USB_EPStartXfer+0x1d2>
 80020ca:	f8b5 2050 	ldrh.w	r2, [r5, #80]	; 0x50
 80020ce:	7820      	ldrb	r0, [r4, #0]
 80020d0:	b292      	uxth	r2, r2
 80020d2:	f205 410c 	addw	r1, r5, #1036	; 0x40c
 80020d6:	0100      	lsls	r0, r0, #4
 80020d8:	4411      	add	r1, r2
 80020da:	5a42      	ldrh	r2, [r0, r1]
 80020dc:	2e3e      	cmp	r6, #62	; 0x3e
 80020de:	f3c2 0209 	ubfx	r2, r2, #0, #10
 80020e2:	5242      	strh	r2, [r0, r1]
 80020e4:	d911      	bls.n	800210a <USB_EPStartXfer+0x1ba>
 80020e6:	06f2      	lsls	r2, r6, #27
 80020e8:	5a42      	ldrh	r2, [r0, r1]
 80020ea:	ea4f 1756 	mov.w	r7, r6, lsr #5
 80020ee:	bf08      	it	eq
 80020f0:	f107 37ff 	addeq.w	r7, r7, #4294967295
 80020f4:	b292      	uxth	r2, r2
 80020f6:	ea42 2287 	orr.w	r2, r2, r7, lsl #10
 80020fa:	ea6f 4242 	mvn.w	r2, r2, lsl #17
 80020fe:	ea6f 4252 	mvn.w	r2, r2, lsr #17
 8002102:	b292      	uxth	r2, r2
 8002104:	5242      	strh	r2, [r0, r1]
 8002106:	8962      	ldrh	r2, [r4, #10]
 8002108:	e7af      	b.n	800206a <USB_EPStartXfer+0x11a>
 800210a:	b90e      	cbnz	r6, 8002110 <USB_EPStartXfer+0x1c0>
 800210c:	5a42      	ldrh	r2, [r0, r1]
 800210e:	e7f4      	b.n	80020fa <USB_EPStartXfer+0x1aa>
 8002110:	5a42      	ldrh	r2, [r0, r1]
 8002112:	0877      	lsrs	r7, r6, #1
 8002114:	07f6      	lsls	r6, r6, #31
 8002116:	bf48      	it	mi
 8002118:	3701      	addmi	r7, #1
 800211a:	b292      	uxth	r2, r2
 800211c:	ea42 2287 	orr.w	r2, r2, r7, lsl #10
 8002120:	e7ef      	b.n	8002102 <USB_EPStartXfer+0x1b2>
 8002122:	2a01      	cmp	r2, #1
 8002124:	d1ef      	bne.n	8002106 <USB_EPStartXfer+0x1b6>
 8002126:	f8b5 0050 	ldrh.w	r0, [r5, #80]	; 0x50
 800212a:	7821      	ldrb	r1, [r4, #0]
 800212c:	b280      	uxth	r0, r0
 800212e:	f205 420c 	addw	r2, r5, #1036	; 0x40c
 8002132:	0109      	lsls	r1, r1, #4
 8002134:	4402      	add	r2, r0
 8002136:	528b      	strh	r3, [r1, r2]
 8002138:	e7e5      	b.n	8002106 <USB_EPStartXfer+0x1b6>
 800213a:	f422 42e2 	bic.w	r2, r2, #28928	; 0x7100
 800213e:	f022 0270 	bic.w	r2, r2, #112	; 0x70
 8002142:	0412      	lsls	r2, r2, #16
 8002144:	0c12      	lsrs	r2, r2, #16
 8002146:	f442 4200 	orr.w	r2, r2, #32768	; 0x8000
 800214a:	f042 0280 	orr.w	r2, r2, #128	; 0x80
 800214e:	f820 202e 	strh.w	r2, [r0, lr, lsl #2]
 8002152:	f8b0 3050 	ldrh.w	r3, [r0, #80]	; 0x50
 8002156:	f200 4204 	addw	r2, r0, #1028	; 0x404
 800215a:	b29b      	uxth	r3, r3
 800215c:	441a      	add	r2, r3
 800215e:	b2b3      	uxth	r3, r6
 8002160:	f822 300c 	strh.w	r3, [r2, ip]
 8002164:	8922      	ldrh	r2, [r4, #8]
 8002166:	e782      	b.n	800206e <USB_EPStartXfer+0x11e>
 8002168:	f830 202e 	ldrh.w	r2, [r0, lr, lsl #2]
 800216c:	1bf6      	subs	r6, r6, r7
 800216e:	6226      	str	r6, [r4, #32]
 8002170:	f8b0 6050 	ldrh.w	r6, [r0, #80]	; 0x50
 8002174:	0652      	lsls	r2, r2, #25
 8002176:	b2bb      	uxth	r3, r7
 8002178:	b2b6      	uxth	r6, r6
 800217a:	d506      	bpl.n	800218a <USB_EPStartXfer+0x23a>
 800217c:	f200 420c 	addw	r2, r0, #1036	; 0x40c
 8002180:	4432      	add	r2, r6
 8002182:	f822 300c 	strh.w	r3, [r2, ip]
 8002186:	8962      	ldrh	r2, [r4, #10]
 8002188:	e771      	b.n	800206e <USB_EPStartXfer+0x11e>
 800218a:	f200 4204 	addw	r2, r0, #1028	; 0x404
 800218e:	4432      	add	r2, r6
 8002190:	e7e6      	b.n	8002160 <USB_EPStartXfer+0x210>
 8002192:	b9d2      	cbnz	r2, 80021ca <USB_EPStartXfer+0x27a>
 8002194:	69a3      	ldr	r3, [r4, #24]
 8002196:	6921      	ldr	r1, [r4, #16]
 8002198:	f8b0 0050 	ldrh.w	r0, [r0, #80]	; 0x50
 800219c:	428b      	cmp	r3, r1
 800219e:	bf84      	itt	hi
 80021a0:	1a5a      	subhi	r2, r3, r1
 80021a2:	460b      	movhi	r3, r1
 80021a4:	7821      	ldrb	r1, [r4, #0]
 80021a6:	61a2      	str	r2, [r4, #24]
 80021a8:	b280      	uxth	r0, r0
 80021aa:	f205 420c 	addw	r2, r5, #1036	; 0x40c
 80021ae:	0109      	lsls	r1, r1, #4
 80021b0:	4402      	add	r2, r0
 80021b2:	5a50      	ldrh	r0, [r2, r1]
 80021b4:	2b3e      	cmp	r3, #62	; 0x3e
 80021b6:	f3c0 0009 	ubfx	r0, r0, #0, #10
 80021ba:	5250      	strh	r0, [r2, r1]
 80021bc:	f200 80c5 	bhi.w	800234a <USB_EPStartXfer+0x3fa>
 80021c0:	2b00      	cmp	r3, #0
 80021c2:	f040 80d2 	bne.w	800236a <USB_EPStartXfer+0x41a>
 80021c6:	5a53      	ldrh	r3, [r2, r1]
 80021c8:	e0c8      	b.n	800235c <USB_EPStartXfer+0x40c>
 80021ca:	78e3      	ldrb	r3, [r4, #3]
 80021cc:	2b02      	cmp	r3, #2
 80021ce:	d17c      	bne.n	80022ca <USB_EPStartXfer+0x37a>
 80021d0:	2900      	cmp	r1, #0
 80021d2:	d14b      	bne.n	800226c <USB_EPStartXfer+0x31c>
 80021d4:	f8b0 3050 	ldrh.w	r3, [r0, #80]	; 0x50
 80021d8:	7820      	ldrb	r0, [r4, #0]
 80021da:	b29b      	uxth	r3, r3
 80021dc:	f205 4104 	addw	r1, r5, #1028	; 0x404
 80021e0:	0100      	lsls	r0, r0, #4
 80021e2:	4419      	add	r1, r3
 80021e4:	5a43      	ldrh	r3, [r0, r1]
 80021e6:	f3c3 0309 	ubfx	r3, r3, #0, #10
 80021ea:	5243      	strh	r3, [r0, r1]
 80021ec:	6923      	ldr	r3, [r4, #16]
 80021ee:	2b3e      	cmp	r3, #62	; 0x3e
 80021f0:	d920      	bls.n	8002234 <USB_EPStartXfer+0x2e4>
 80021f2:	5a42      	ldrh	r2, [r0, r1]
 80021f4:	095e      	lsrs	r6, r3, #5
 80021f6:	06df      	lsls	r7, r3, #27
 80021f8:	bf08      	it	eq
 80021fa:	f106 36ff 	addeq.w	r6, r6, #4294967295
 80021fe:	b292      	uxth	r2, r2
 8002200:	ea42 2286 	orr.w	r2, r2, r6, lsl #10
 8002204:	ea6f 4242 	mvn.w	r2, r2, lsl #17
 8002208:	ea6f 4252 	mvn.w	r2, r2, lsr #17
 800220c:	b292      	uxth	r2, r2
 800220e:	5242      	strh	r2, [r0, r1]
 8002210:	f8b5 0050 	ldrh.w	r0, [r5, #80]	; 0x50
 8002214:	7822      	ldrb	r2, [r4, #0]
 8002216:	b280      	uxth	r0, r0
 8002218:	f205 410c 	addw	r1, r5, #1036	; 0x40c
 800221c:	0112      	lsls	r2, r2, #4
 800221e:	4401      	add	r1, r0
 8002220:	5a50      	ldrh	r0, [r2, r1]
 8002222:	2b3e      	cmp	r3, #62	; 0x3e
 8002224:	f3c0 0009 	ubfx	r0, r0, #0, #10
 8002228:	5250      	strh	r0, [r2, r1]
 800222a:	d810      	bhi.n	800224e <USB_EPStartXfer+0x2fe>
 800222c:	2b00      	cmp	r3, #0
 800222e:	d143      	bne.n	80022b8 <USB_EPStartXfer+0x368>
 8002230:	5a53      	ldrh	r3, [r2, r1]
 8002232:	e015      	b.n	8002260 <USB_EPStartXfer+0x310>
 8002234:	b90b      	cbnz	r3, 800223a <USB_EPStartXfer+0x2ea>
 8002236:	5a42      	ldrh	r2, [r0, r1]
 8002238:	e7e4      	b.n	8002204 <USB_EPStartXfer+0x2b4>
 800223a:	07da      	lsls	r2, r3, #31
 800223c:	5a42      	ldrh	r2, [r0, r1]
 800223e:	ea4f 0653 	mov.w	r6, r3, lsr #1
 8002242:	bf48      	it	mi
 8002244:	3601      	addmi	r6, #1
 8002246:	b292      	uxth	r2, r2
 8002248:	ea42 2286 	orr.w	r2, r2, r6, lsl #10
 800224c:	e7de      	b.n	800220c <USB_EPStartXfer+0x2bc>
 800224e:	0958      	lsrs	r0, r3, #5
 8002250:	06df      	lsls	r7, r3, #27
 8002252:	5a53      	ldrh	r3, [r2, r1]
 8002254:	bf08      	it	eq
 8002256:	f100 30ff 	addeq.w	r0, r0, #4294967295
 800225a:	b29b      	uxth	r3, r3
 800225c:	ea43 2380 	orr.w	r3, r3, r0, lsl #10
 8002260:	ea6f 4343 	mvn.w	r3, r3, lsl #17
 8002264:	ea6f 4353 	mvn.w	r3, r3, lsr #17
 8002268:	b29b      	uxth	r3, r3
 800226a:	5253      	strh	r3, [r2, r1]
 800226c:	69e3      	ldr	r3, [r4, #28]
 800226e:	b1bb      	cbz	r3, 80022a0 <USB_EPStartXfer+0x350>
 8002270:	f244 0340 	movw	r3, #16448	; 0x4040
 8002274:	7822      	ldrb	r2, [r4, #0]
 8002276:	f835 1022 	ldrh.w	r1, [r5, r2, lsl #2]
 800227a:	ea03 0001 	and.w	r0, r3, r1
 800227e:	438b      	bics	r3, r1
 8002280:	d000      	beq.n	8002284 <USB_EPStartXfer+0x334>
 8002282:	b968      	cbnz	r0, 80022a0 <USB_EPStartXfer+0x350>
 8002284:	f835 3022 	ldrh.w	r3, [r5, r2, lsl #2]
 8002288:	f423 43e0 	bic.w	r3, r3, #28672	; 0x7000
 800228c:	f023 0370 	bic.w	r3, r3, #112	; 0x70
 8002290:	041b      	lsls	r3, r3, #16
 8002292:	0c1b      	lsrs	r3, r3, #16
 8002294:	f443 4300 	orr.w	r3, r3, #32768	; 0x8000
 8002298:	f043 03c0 	orr.w	r3, r3, #192	; 0xc0
 800229c:	f825 3022 	strh.w	r3, [r5, r2, lsl #2]
 80022a0:	7822      	ldrb	r2, [r4, #0]
 80022a2:	f835 3022 	ldrh.w	r3, [r5, r2, lsl #2]
 80022a6:	f423 4380 	bic.w	r3, r3, #16384	; 0x4000
 80022aa:	f023 0370 	bic.w	r3, r3, #112	; 0x70
 80022ae:	041b      	lsls	r3, r3, #16
 80022b0:	0c1b      	lsrs	r3, r3, #16
 80022b2:	f483 5340 	eor.w	r3, r3, #12288	; 0x3000
 80022b6:	e675      	b.n	8001fa4 <USB_EPStartXfer+0x54>
 80022b8:	0858      	lsrs	r0, r3, #1
 80022ba:	07de      	lsls	r6, r3, #31
 80022bc:	5a53      	ldrh	r3, [r2, r1]
 80022be:	bf48      	it	mi
 80022c0:	3001      	addmi	r0, #1
 80022c2:	b29b      	uxth	r3, r3
 80022c4:	ea43 2380 	orr.w	r3, r3, r0, lsl #10
 80022c8:	e7ce      	b.n	8002268 <USB_EPStartXfer+0x318>
 80022ca:	2b01      	cmp	r3, #1
 80022cc:	d156      	bne.n	800237c <USB_EPStartXfer+0x42c>
 80022ce:	69a3      	ldr	r3, [r4, #24]
 80022d0:	6922      	ldr	r2, [r4, #16]
 80022d2:	4293      	cmp	r3, r2
 80022d4:	bf94      	ite	ls
 80022d6:	2000      	movls	r0, #0
 80022d8:	1a98      	subhi	r0, r3, r2
 80022da:	61a0      	str	r0, [r4, #24]
 80022dc:	bf88      	it	hi
 80022de:	4613      	movhi	r3, r2
 80022e0:	2900      	cmp	r1, #0
 80022e2:	d1dd      	bne.n	80022a0 <USB_EPStartXfer+0x350>
 80022e4:	f8b5 2050 	ldrh.w	r2, [r5, #80]	; 0x50
 80022e8:	7820      	ldrb	r0, [r4, #0]
 80022ea:	b292      	uxth	r2, r2
 80022ec:	f205 4104 	addw	r1, r5, #1028	; 0x404
 80022f0:	0100      	lsls	r0, r0, #4
 80022f2:	4411      	add	r1, r2
 80022f4:	5a42      	ldrh	r2, [r0, r1]
 80022f6:	2b3e      	cmp	r3, #62	; 0x3e
 80022f8:	f3c2 0209 	ubfx	r2, r2, #0, #10
 80022fc:	5242      	strh	r2, [r0, r1]
 80022fe:	d918      	bls.n	8002332 <USB_EPStartXfer+0x3e2>
 8002300:	06da      	lsls	r2, r3, #27
 8002302:	5a42      	ldrh	r2, [r0, r1]
 8002304:	ea4f 1653 	mov.w	r6, r3, lsr #5
 8002308:	bf08      	it	eq
 800230a:	f106 36ff 	addeq.w	r6, r6, #4294967295
 800230e:	b292      	uxth	r2, r2
 8002310:	ea42 2286 	orr.w	r2, r2, r6, lsl #10
 8002314:	ea6f 4242 	mvn.w	r2, r2, lsl #17
 8002318:	ea6f 4252 	mvn.w	r2, r2, lsr #17
 800231c:	b292      	uxth	r2, r2
 800231e:	5242      	strh	r2, [r0, r1]
 8002320:	f8b5 0050 	ldrh.w	r0, [r5, #80]	; 0x50
 8002324:	7822      	ldrb	r2, [r4, #0]
 8002326:	b280      	uxth	r0, r0
 8002328:	f205 410c 	addw	r1, r5, #1036	; 0x40c
 800232c:	0112      	lsls	r2, r2, #4
 800232e:	4401      	add	r1, r0
 8002330:	e73f      	b.n	80021b2 <USB_EPStartXfer+0x262>
 8002332:	b90b      	cbnz	r3, 8002338 <USB_EPStartXfer+0x3e8>
 8002334:	5a42      	ldrh	r2, [r0, r1]
 8002336:	e7ed      	b.n	8002314 <USB_EPStartXfer+0x3c4>
 8002338:	5a42      	ldrh	r2, [r0, r1]
 800233a:	085e      	lsrs	r6, r3, #1
 800233c:	07df      	lsls	r7, r3, #31
 800233e:	bf48      	it	mi
 8002340:	3601      	addmi	r6, #1
 8002342:	b292      	uxth	r2, r2
 8002344:	ea42 2286 	orr.w	r2, r2, r6, lsl #10
 8002348:	e7e8      	b.n	800231c <USB_EPStartXfer+0x3cc>
 800234a:	0958      	lsrs	r0, r3, #5
 800234c:	06de      	lsls	r6, r3, #27
 800234e:	5a53      	ldrh	r3, [r2, r1]
 8002350:	bf08      	it	eq
 8002352:	f100 30ff 	addeq.w	r0, r0, #4294967295
 8002356:	b29b      	uxth	r3, r3
 8002358:	ea43 2380 	orr.w	r3, r3, r0, lsl #10
 800235c:	ea6f 4343 	mvn.w	r3, r3, lsl #17
 8002360:	ea6f 4353 	mvn.w	r3, r3, lsr #17
 8002364:	b29b      	uxth	r3, r3
 8002366:	5253      	strh	r3, [r2, r1]
 8002368:	e79a      	b.n	80022a0 <USB_EPStartXfer+0x350>
 800236a:	0858      	lsrs	r0, r3, #1
 800236c:	07db      	lsls	r3, r3, #31
 800236e:	5a53      	ldrh	r3, [r2, r1]
 8002370:	bf48      	it	mi
 8002372:	3001      	addmi	r0, #1
 8002374:	b29b      	uxth	r3, r3
 8002376:	ea43 2380 	orr.w	r3, r3, r0, lsl #10
 800237a:	e7f3      	b.n	8002364 <USB_EPStartXfer+0x414>
 800237c:	2001      	movs	r0, #1
 800237e:	e618      	b.n	8001fb2 <USB_EPStartXfer+0x62>

08002380 <USB_ReadPMA>:
 8002380:	eb00 0042 	add.w	r0, r0, r2, lsl #1
 8002384:	b5f0      	push	{r4, r5, r6, r7, lr}
 8002386:	f500 6080 	add.w	r0, r0, #1024	; 0x400
 800238a:	085d      	lsrs	r5, r3, #1
 800238c:	460c      	mov	r4, r1
 800238e:	4607      	mov	r7, r0
 8002390:	462e      	mov	r6, r5
 8002392:	3402      	adds	r4, #2
 8002394:	b936      	cbnz	r6, 80023a4 <USB_ReadPMA+0x24>
 8002396:	07db      	lsls	r3, r3, #31
 8002398:	bf44      	itt	mi
 800239a:	f830 3025 	ldrhmi.w	r3, [r0, r5, lsl #2]
 800239e:	f801 3015 	strbmi.w	r3, [r1, r5, lsl #1]
 80023a2:	bdf0      	pop	{r4, r5, r6, r7, pc}
 80023a4:	f837 2b04 	ldrh.w	r2, [r7], #4
 80023a8:	3e01      	subs	r6, #1
 80023aa:	b292      	uxth	r2, r2
 80023ac:	f804 2c02 	strb.w	r2, [r4, #-2]
 80023b0:	0a12      	lsrs	r2, r2, #8
 80023b2:	f804 2c01 	strb.w	r2, [r4, #-1]
 80023b6:	e7ec      	b.n	8002392 <USB_ReadPMA+0x12>

080023b8 <USBD_HID_GetFSCfgDesc>:
 80023b8:	2322      	movs	r3, #34	; 0x22
 80023ba:	8003      	strh	r3, [r0, #0]
 80023bc:	4800      	ldr	r0, [pc, #0]	; (80023c0 <USBD_HID_GetFSCfgDesc+0x8>)
 80023be:	4770      	bx	lr
 80023c0:	20000090 	.word	0x20000090

080023c4 <USBD_HID_GetHSCfgDesc>:
 80023c4:	2322      	movs	r3, #34	; 0x22
 80023c6:	8003      	strh	r3, [r0, #0]
 80023c8:	4800      	ldr	r0, [pc, #0]	; (80023cc <USBD_HID_GetHSCfgDesc+0x8>)
 80023ca:	4770      	bx	lr
 80023cc:	200000b4 	.word	0x200000b4

080023d0 <USBD_HID_GetOtherSpeedCfgDesc>:
 80023d0:	2322      	movs	r3, #34	; 0x22
 80023d2:	8003      	strh	r3, [r0, #0]
 80023d4:	4800      	ldr	r0, [pc, #0]	; (80023d8 <USBD_HID_GetOtherSpeedCfgDesc+0x8>)
 80023d6:	4770      	bx	lr
 80023d8:	200000f0 	.word	0x200000f0

080023dc <USBD_HID_DataIn>:
 80023dc:	f8d0 32b8 	ldr.w	r3, [r0, #696]	; 0x2b8
 80023e0:	2000      	movs	r0, #0
 80023e2:	7318      	strb	r0, [r3, #12]
 80023e4:	4770      	bx	lr
	...

080023e8 <USBD_HID_GetDeviceQualifierDesc>:
 80023e8:	230a      	movs	r3, #10
 80023ea:	8003      	strh	r3, [r0, #0]
 80023ec:	4800      	ldr	r0, [pc, #0]	; (80023f0 <USBD_HID_GetDeviceQualifierDesc+0x8>)
 80023ee:	4770      	bx	lr
 80023f0:	200000e4 	.word	0x200000e4

080023f4 <USBD_HID_Setup>:
 80023f4:	b537      	push	{r0, r1, r2, r4, r5, lr}
 80023f6:	2200      	movs	r2, #0
 80023f8:	780c      	ldrb	r4, [r1, #0]
 80023fa:	f8d0 32b8 	ldr.w	r3, [r0, #696]	; 0x2b8
 80023fe:	f014 0460 	ands.w	r4, r4, #96	; 0x60
 8002402:	f8ad 2006 	strh.w	r2, [sp, #6]
 8002406:	d01e      	beq.n	8002446 <USBD_HID_Setup+0x52>
 8002408:	2c20      	cmp	r4, #32
 800240a:	d132      	bne.n	8002472 <USBD_HID_Setup+0x7e>
 800240c:	784a      	ldrb	r2, [r1, #1]
 800240e:	3a02      	subs	r2, #2
 8002410:	2a09      	cmp	r2, #9
 8002412:	d82e      	bhi.n	8002472 <USBD_HID_Setup+0x7e>
 8002414:	e8df f002 	tbb	[pc, r2]
 8002418:	2d2d0b14 	.word	0x2d2d0b14
 800241c:	2d2d2d2d 	.word	0x2d2d2d2d
 8002420:	0510      	.short	0x0510
 8002422:	788a      	ldrb	r2, [r1, #2]
 8002424:	601a      	str	r2, [r3, #0]
 8002426:	2400      	movs	r4, #0
 8002428:	4620      	mov	r0, r4
 800242a:	b003      	add	sp, #12
 800242c:	bd30      	pop	{r4, r5, pc}
 800242e:	2201      	movs	r2, #1
 8002430:	4619      	mov	r1, r3
 8002432:	f000 fbc8 	bl	8002bc6 <USBD_CtlSendData>
 8002436:	e7f6      	b.n	8002426 <USBD_HID_Setup+0x32>
 8002438:	884a      	ldrh	r2, [r1, #2]
 800243a:	0a12      	lsrs	r2, r2, #8
 800243c:	605a      	str	r2, [r3, #4]
 800243e:	e7f2      	b.n	8002426 <USBD_HID_Setup+0x32>
 8002440:	2201      	movs	r2, #1
 8002442:	1d19      	adds	r1, r3, #4
 8002444:	e7f5      	b.n	8002432 <USBD_HID_Setup+0x3e>
 8002446:	784d      	ldrb	r5, [r1, #1]
 8002448:	2d0b      	cmp	r5, #11
 800244a:	d812      	bhi.n	8002472 <USBD_HID_Setup+0x7e>
 800244c:	e8df f005 	tbb	[pc, r5]
 8002450:	11111106 	.word	0x11111106
 8002454:	11151111 	.word	0x11151111
 8002458:	31291111 	.word	0x31291111
 800245c:	f890 329c 	ldrb.w	r3, [r0, #668]	; 0x29c
 8002460:	2b03      	cmp	r3, #3
 8002462:	d106      	bne.n	8002472 <USBD_HID_Setup+0x7e>
 8002464:	2202      	movs	r2, #2
 8002466:	f10d 0106 	add.w	r1, sp, #6
 800246a:	f000 fbac 	bl	8002bc6 <USBD_CtlSendData>
 800246e:	462c      	mov	r4, r5
 8002470:	e7da      	b.n	8002428 <USBD_HID_Setup+0x34>
 8002472:	f000 fb81 	bl	8002b78 <USBD_CtlError>
 8002476:	2402      	movs	r4, #2
 8002478:	e7d6      	b.n	8002428 <USBD_HID_Setup+0x34>
 800247a:	884b      	ldrh	r3, [r1, #2]
 800247c:	0a1b      	lsrs	r3, r3, #8
 800247e:	2b22      	cmp	r3, #34	; 0x22
 8002480:	d107      	bne.n	8002492 <USBD_HID_Setup+0x9e>
 8002482:	88ca      	ldrh	r2, [r1, #6]
 8002484:	490e      	ldr	r1, [pc, #56]	; (80024c0 <USBD_HID_Setup+0xcc>)
 8002486:	2a4a      	cmp	r2, #74	; 0x4a
 8002488:	bf28      	it	cs
 800248a:	224a      	movcs	r2, #74	; 0x4a
 800248c:	f000 fb9b 	bl	8002bc6 <USBD_CtlSendData>
 8002490:	e7ca      	b.n	8002428 <USBD_HID_Setup+0x34>
 8002492:	2b21      	cmp	r3, #33	; 0x21
 8002494:	d1ed      	bne.n	8002472 <USBD_HID_Setup+0x7e>
 8002496:	88ca      	ldrh	r2, [r1, #6]
 8002498:	490a      	ldr	r1, [pc, #40]	; (80024c4 <USBD_HID_Setup+0xd0>)
 800249a:	2a09      	cmp	r2, #9
 800249c:	bf28      	it	cs
 800249e:	2209      	movcs	r2, #9
 80024a0:	e7f4      	b.n	800248c <USBD_HID_Setup+0x98>
 80024a2:	f890 229c 	ldrb.w	r2, [r0, #668]	; 0x29c
 80024a6:	2a03      	cmp	r2, #3
 80024a8:	d1e3      	bne.n	8002472 <USBD_HID_Setup+0x7e>
 80024aa:	2201      	movs	r2, #1
 80024ac:	f103 0108 	add.w	r1, r3, #8
 80024b0:	e7ec      	b.n	800248c <USBD_HID_Setup+0x98>
 80024b2:	f890 229c 	ldrb.w	r2, [r0, #668]	; 0x29c
 80024b6:	2a03      	cmp	r2, #3
 80024b8:	d1db      	bne.n	8002472 <USBD_HID_Setup+0x7e>
 80024ba:	788a      	ldrb	r2, [r1, #2]
 80024bc:	609a      	str	r2, [r3, #8]
 80024be:	e7b3      	b.n	8002428 <USBD_HID_Setup+0x34>
 80024c0:	2000000c 	.word	0x2000000c
 80024c4:	200000d8 	.word	0x200000d8

080024c8 <USBD_HID_DeInit>:
 80024c8:	b538      	push	{r3, r4, r5, lr}
 80024ca:	4604      	mov	r4, r0
 80024cc:	2500      	movs	r5, #0
 80024ce:	2181      	movs	r1, #129	; 0x81
 80024d0:	f000 fcf5 	bl	8002ebe <USBD_LL_CloseEP>
 80024d4:	f8d4 02b8 	ldr.w	r0, [r4, #696]	; 0x2b8
 80024d8:	62e5      	str	r5, [r4, #44]	; 0x2c
 80024da:	b118      	cbz	r0, 80024e4 <USBD_HID_DeInit+0x1c>
 80024dc:	f000 fd3c 	bl	8002f58 <USBD_static_free>
 80024e0:	f8c4 52b8 	str.w	r5, [r4, #696]	; 0x2b8
 80024e4:	2000      	movs	r0, #0
 80024e6:	bd38      	pop	{r3, r4, r5, pc}

080024e8 <USBD_HID_Init>:
 80024e8:	b510      	push	{r4, lr}
 80024ea:	2304      	movs	r3, #4
 80024ec:	2203      	movs	r2, #3
 80024ee:	2181      	movs	r1, #129	; 0x81
 80024f0:	4604      	mov	r4, r0
 80024f2:	f000 fcd8 	bl	8002ea6 <USBD_LL_OpenEP>
 80024f6:	2301      	movs	r3, #1
 80024f8:	2010      	movs	r0, #16
 80024fa:	62e3      	str	r3, [r4, #44]	; 0x2c
 80024fc:	f000 fd28 	bl	8002f50 <USBD_static_malloc>
 8002500:	4603      	mov	r3, r0
 8002502:	f8c4 02b8 	str.w	r0, [r4, #696]	; 0x2b8
 8002506:	b110      	cbz	r0, 800250e <USBD_HID_Init+0x26>
 8002508:	2000      	movs	r0, #0
 800250a:	7318      	strb	r0, [r3, #12]
 800250c:	bd10      	pop	{r4, pc}
 800250e:	2002      	movs	r0, #2
 8002510:	e7fc      	b.n	800250c <USBD_HID_Init+0x24>

08002512 <USBD_Init>:
 8002512:	b508      	push	{r3, lr}
 8002514:	b180      	cbz	r0, 8002538 <USBD_Init+0x26>
 8002516:	f8d0 32b4 	ldr.w	r3, [r0, #692]	; 0x2b4
 800251a:	b113      	cbz	r3, 8002522 <USBD_Init+0x10>
 800251c:	2300      	movs	r3, #0
 800251e:	f8c0 32b4 	str.w	r3, [r0, #692]	; 0x2b4
 8002522:	b109      	cbz	r1, 8002528 <USBD_Init+0x16>
 8002524:	f8c0 12b0 	str.w	r1, [r0, #688]	; 0x2b0
 8002528:	2301      	movs	r3, #1
 800252a:	7002      	strb	r2, [r0, #0]
 800252c:	f880 329c 	strb.w	r3, [r0, #668]	; 0x29c
 8002530:	f000 fc7e 	bl	8002e30 <USBD_LL_Init>
 8002534:	2000      	movs	r0, #0
 8002536:	bd08      	pop	{r3, pc}
 8002538:	2002      	movs	r0, #2
 800253a:	e7fc      	b.n	8002536 <USBD_Init+0x24>

0800253c <USBD_RegisterClass>:
 800253c:	b119      	cbz	r1, 8002546 <USBD_RegisterClass+0xa>
 800253e:	f8c0 12b4 	str.w	r1, [r0, #692]	; 0x2b4
 8002542:	2000      	movs	r0, #0
 8002544:	4770      	bx	lr
 8002546:	2002      	movs	r0, #2
 8002548:	4770      	bx	lr

0800254a <USBD_Start>:
 800254a:	b508      	push	{r3, lr}
 800254c:	f000 fca2 	bl	8002e94 <USBD_LL_Start>
 8002550:	2000      	movs	r0, #0
 8002552:	bd08      	pop	{r3, pc}

08002554 <USBD_SetClassConfig>:
 8002554:	b508      	push	{r3, lr}
 8002556:	f8d0 32b4 	ldr.w	r3, [r0, #692]	; 0x2b4
 800255a:	b133      	cbz	r3, 800256a <USBD_SetClassConfig+0x16>
 800255c:	681b      	ldr	r3, [r3, #0]
 800255e:	4798      	blx	r3
 8002560:	3800      	subs	r0, #0
 8002562:	bf18      	it	ne
 8002564:	2001      	movne	r0, #1
 8002566:	0040      	lsls	r0, r0, #1
 8002568:	bd08      	pop	{r3, pc}
 800256a:	2002      	movs	r0, #2
 800256c:	e7fc      	b.n	8002568 <USBD_SetClassConfig+0x14>

0800256e <USBD_ClrClassConfig>:
 800256e:	b508      	push	{r3, lr}
 8002570:	f8d0 32b4 	ldr.w	r3, [r0, #692]	; 0x2b4
 8002574:	685b      	ldr	r3, [r3, #4]
 8002576:	4798      	blx	r3
 8002578:	2000      	movs	r0, #0
 800257a:	bd08      	pop	{r3, pc}

0800257c <USBD_LL_SetupStage>:
 800257c:	b538      	push	{r3, r4, r5, lr}
 800257e:	f500 752a 	add.w	r5, r0, #680	; 0x2a8
 8002582:	4604      	mov	r4, r0
 8002584:	4628      	mov	r0, r5
 8002586:	f000 fae3 	bl	8002b50 <USBD_ParseSetupRequest>
 800258a:	2301      	movs	r3, #1
 800258c:	f894 12a8 	ldrb.w	r1, [r4, #680]	; 0x2a8
 8002590:	f8c4 3294 	str.w	r3, [r4, #660]	; 0x294
 8002594:	f8b4 32ae 	ldrh.w	r3, [r4, #686]	; 0x2ae
 8002598:	f8c4 3298 	str.w	r3, [r4, #664]	; 0x298
 800259c:	f001 031f 	and.w	r3, r1, #31
 80025a0:	2b01      	cmp	r3, #1
 80025a2:	d008      	beq.n	80025b6 <USBD_LL_SetupStage+0x3a>
 80025a4:	2b02      	cmp	r3, #2
 80025a6:	d00b      	beq.n	80025c0 <USBD_LL_SetupStage+0x44>
 80025a8:	b97b      	cbnz	r3, 80025ca <USBD_LL_SetupStage+0x4e>
 80025aa:	4629      	mov	r1, r5
 80025ac:	4620      	mov	r0, r4
 80025ae:	f000 f8fb 	bl	80027a8 <USBD_StdDevReq>
 80025b2:	2000      	movs	r0, #0
 80025b4:	bd38      	pop	{r3, r4, r5, pc}
 80025b6:	4629      	mov	r1, r5
 80025b8:	4620      	mov	r0, r4
 80025ba:	f000 fa1d 	bl	80029f8 <USBD_StdItfReq>
 80025be:	e7f8      	b.n	80025b2 <USBD_LL_SetupStage+0x36>
 80025c0:	4629      	mov	r1, r5
 80025c2:	4620      	mov	r0, r4
 80025c4:	f000 fa3c 	bl	8002a40 <USBD_StdEPReq>
 80025c8:	e7f3      	b.n	80025b2 <USBD_LL_SetupStage+0x36>
 80025ca:	4620      	mov	r0, r4
 80025cc:	f001 0180 	and.w	r1, r1, #128	; 0x80
 80025d0:	f000 fc7e 	bl	8002ed0 <USBD_LL_StallEP>
 80025d4:	e7ed      	b.n	80025b2 <USBD_LL_SetupStage+0x36>

080025d6 <USBD_LL_DataOutStage>:
 80025d6:	b5f8      	push	{r3, r4, r5, r6, r7, lr}
 80025d8:	4604      	mov	r4, r0
 80025da:	4617      	mov	r7, r2
 80025dc:	460d      	mov	r5, r1
 80025de:	bb39      	cbnz	r1, 8002630 <USBD_LL_DataOutStage+0x5a>
 80025e0:	f8d0 3294 	ldr.w	r3, [r0, #660]	; 0x294
 80025e4:	2b03      	cmp	r3, #3
 80025e6:	d11c      	bne.n	8002622 <USBD_LL_DataOutStage+0x4c>
 80025e8:	e9d0 6258 	ldrd	r6, r2, [r0, #352]	; 0x160
 80025ec:	4296      	cmp	r6, r2
 80025ee:	d90b      	bls.n	8002608 <USBD_LL_DataOutStage+0x32>
 80025f0:	1ab6      	subs	r6, r6, r2
 80025f2:	42b2      	cmp	r2, r6
 80025f4:	4639      	mov	r1, r7
 80025f6:	f8c0 6160 	str.w	r6, [r0, #352]	; 0x160
 80025fa:	bf8c      	ite	hi
 80025fc:	b2b2      	uxthhi	r2, r6
 80025fe:	b292      	uxthls	r2, r2
 8002600:	f000 faf6 	bl	8002bf0 <USBD_CtlContinueRx>
 8002604:	4628      	mov	r0, r5
 8002606:	bdf8      	pop	{r3, r4, r5, r6, r7, pc}
 8002608:	f8d0 32b4 	ldr.w	r3, [r0, #692]	; 0x2b4
 800260c:	691b      	ldr	r3, [r3, #16]
 800260e:	b123      	cbz	r3, 800261a <USBD_LL_DataOutStage+0x44>
 8002610:	f890 229c 	ldrb.w	r2, [r0, #668]	; 0x29c
 8002614:	2a03      	cmp	r2, #3
 8002616:	d100      	bne.n	800261a <USBD_LL_DataOutStage+0x44>
 8002618:	4798      	blx	r3
 800261a:	4620      	mov	r0, r4
 800261c:	f000 faf0 	bl	8002c00 <USBD_CtlSendStatus>
 8002620:	e7f0      	b.n	8002604 <USBD_LL_DataOutStage+0x2e>
 8002622:	2b05      	cmp	r3, #5
 8002624:	d1ee      	bne.n	8002604 <USBD_LL_DataOutStage+0x2e>
 8002626:	f8c4 1294 	str.w	r1, [r4, #660]	; 0x294
 800262a:	f000 fc51 	bl	8002ed0 <USBD_LL_StallEP>
 800262e:	e7e9      	b.n	8002604 <USBD_LL_DataOutStage+0x2e>
 8002630:	f8d0 32b4 	ldr.w	r3, [r0, #692]	; 0x2b4
 8002634:	699b      	ldr	r3, [r3, #24]
 8002636:	b133      	cbz	r3, 8002646 <USBD_LL_DataOutStage+0x70>
 8002638:	f890 229c 	ldrb.w	r2, [r0, #668]	; 0x29c
 800263c:	2a03      	cmp	r2, #3
 800263e:	d102      	bne.n	8002646 <USBD_LL_DataOutStage+0x70>
 8002640:	4798      	blx	r3
 8002642:	2500      	movs	r5, #0
 8002644:	e7de      	b.n	8002604 <USBD_LL_DataOutStage+0x2e>
 8002646:	2502      	movs	r5, #2
 8002648:	e7dc      	b.n	8002604 <USBD_LL_DataOutStage+0x2e>

0800264a <USBD_LL_DataInStage>:
 800264a:	b5f8      	push	{r3, r4, r5, r6, r7, lr}
 800264c:	4604      	mov	r4, r0
 800264e:	4617      	mov	r7, r2
 8002650:	460d      	mov	r5, r1
 8002652:	2900      	cmp	r1, #0
 8002654:	d147      	bne.n	80026e6 <USBD_LL_DataInStage+0x9c>
 8002656:	f8d0 3294 	ldr.w	r3, [r0, #660]	; 0x294
 800265a:	2b02      	cmp	r3, #2
 800265c:	d13c      	bne.n	80026d8 <USBD_LL_DataInStage+0x8e>
 800265e:	e9d0 6308 	ldrd	r6, r3, [r0, #32]
 8002662:	429e      	cmp	r6, r3
 8002664:	d914      	bls.n	8002690 <USBD_LL_DataInStage+0x46>
 8002666:	1af6      	subs	r6, r6, r3
 8002668:	4639      	mov	r1, r7
 800266a:	6206      	str	r6, [r0, #32]
 800266c:	b2b2      	uxth	r2, r6
 800266e:	f000 fab7 	bl	8002be0 <USBD_CtlContinueSendData>
 8002672:	462b      	mov	r3, r5
 8002674:	462a      	mov	r2, r5
 8002676:	4629      	mov	r1, r5
 8002678:	4620      	mov	r0, r4
 800267a:	f000 fc5f 	bl	8002f3c <USBD_LL_PrepareReceive>
 800267e:	f894 32a0 	ldrb.w	r3, [r4, #672]	; 0x2a0
 8002682:	2b01      	cmp	r3, #1
 8002684:	d102      	bne.n	800268c <USBD_LL_DataInStage+0x42>
 8002686:	2300      	movs	r3, #0
 8002688:	f884 32a0 	strb.w	r3, [r4, #672]	; 0x2a0
 800268c:	4628      	mov	r0, r5
 800268e:	bdf8      	pop	{r3, r4, r5, r6, r7, pc}
 8002690:	69c2      	ldr	r2, [r0, #28]
 8002692:	fbb2 f6f3 	udiv	r6, r2, r3
 8002696:	fb03 2616 	mls	r6, r3, r6, r2
 800269a:	b95e      	cbnz	r6, 80026b4 <USBD_LL_DataInStage+0x6a>
 800269c:	4293      	cmp	r3, r2
 800269e:	d809      	bhi.n	80026b4 <USBD_LL_DataInStage+0x6a>
 80026a0:	f8d0 3298 	ldr.w	r3, [r0, #664]	; 0x298
 80026a4:	429a      	cmp	r2, r3
 80026a6:	d205      	bcs.n	80026b4 <USBD_LL_DataInStage+0x6a>
 80026a8:	460a      	mov	r2, r1
 80026aa:	f000 fa99 	bl	8002be0 <USBD_CtlContinueSendData>
 80026ae:	f8c4 5298 	str.w	r5, [r4, #664]	; 0x298
 80026b2:	e7de      	b.n	8002672 <USBD_LL_DataInStage+0x28>
 80026b4:	f8d4 32b4 	ldr.w	r3, [r4, #692]	; 0x2b4
 80026b8:	68db      	ldr	r3, [r3, #12]
 80026ba:	b12b      	cbz	r3, 80026c8 <USBD_LL_DataInStage+0x7e>
 80026bc:	f894 229c 	ldrb.w	r2, [r4, #668]	; 0x29c
 80026c0:	2a03      	cmp	r2, #3
 80026c2:	d101      	bne.n	80026c8 <USBD_LL_DataInStage+0x7e>
 80026c4:	4620      	mov	r0, r4
 80026c6:	4798      	blx	r3
 80026c8:	2180      	movs	r1, #128	; 0x80
 80026ca:	4620      	mov	r0, r4
 80026cc:	f000 fc00 	bl	8002ed0 <USBD_LL_StallEP>
 80026d0:	4620      	mov	r0, r4
 80026d2:	f000 faa0 	bl	8002c16 <USBD_CtlReceiveStatus>
 80026d6:	e7d2      	b.n	800267e <USBD_LL_DataInStage+0x34>
 80026d8:	f033 0304 	bics.w	r3, r3, #4
 80026dc:	d1cf      	bne.n	800267e <USBD_LL_DataInStage+0x34>
 80026de:	2180      	movs	r1, #128	; 0x80
 80026e0:	f000 fbf6 	bl	8002ed0 <USBD_LL_StallEP>
 80026e4:	e7cb      	b.n	800267e <USBD_LL_DataInStage+0x34>
 80026e6:	f8d0 32b4 	ldr.w	r3, [r0, #692]	; 0x2b4
 80026ea:	695b      	ldr	r3, [r3, #20]
 80026ec:	b133      	cbz	r3, 80026fc <USBD_LL_DataInStage+0xb2>
 80026ee:	f890 229c 	ldrb.w	r2, [r0, #668]	; 0x29c
 80026f2:	2a03      	cmp	r2, #3
 80026f4:	d102      	bne.n	80026fc <USBD_LL_DataInStage+0xb2>
 80026f6:	4798      	blx	r3
 80026f8:	2500      	movs	r5, #0
 80026fa:	e7c7      	b.n	800268c <USBD_LL_DataInStage+0x42>
 80026fc:	2502      	movs	r5, #2
 80026fe:	e7c5      	b.n	800268c <USBD_LL_DataInStage+0x42>

08002700 <USBD_LL_Reset>:
 8002700:	2200      	movs	r2, #0
 8002702:	b570      	push	{r4, r5, r6, lr}
 8002704:	4604      	mov	r4, r0
 8002706:	2501      	movs	r5, #1
 8002708:	2640      	movs	r6, #64	; 0x40
 800270a:	4611      	mov	r1, r2
 800270c:	2340      	movs	r3, #64	; 0x40
 800270e:	f000 fbca 	bl	8002ea6 <USBD_LL_OpenEP>
 8002712:	4633      	mov	r3, r6
 8002714:	2180      	movs	r1, #128	; 0x80
 8002716:	2200      	movs	r2, #0
 8002718:	4620      	mov	r0, r4
 800271a:	f8c4 5158 	str.w	r5, [r4, #344]	; 0x158
 800271e:	f8c4 6164 	str.w	r6, [r4, #356]	; 0x164
 8002722:	f000 fbc0 	bl	8002ea6 <USBD_LL_OpenEP>
 8002726:	2100      	movs	r1, #0
 8002728:	f8d4 32b8 	ldr.w	r3, [r4, #696]	; 0x2b8
 800272c:	61a5      	str	r5, [r4, #24]
 800272e:	6266      	str	r6, [r4, #36]	; 0x24
 8002730:	f884 529c 	strb.w	r5, [r4, #668]	; 0x29c
 8002734:	f8c4 1294 	str.w	r1, [r4, #660]	; 0x294
 8002738:	6061      	str	r1, [r4, #4]
 800273a:	f8c4 12a4 	str.w	r1, [r4, #676]	; 0x2a4
 800273e:	b123      	cbz	r3, 800274a <USBD_LL_Reset+0x4a>
 8002740:	f8d4 32b4 	ldr.w	r3, [r4, #692]	; 0x2b4
 8002744:	4620      	mov	r0, r4
 8002746:	685b      	ldr	r3, [r3, #4]
 8002748:	4798      	blx	r3
 800274a:	2000      	movs	r0, #0
 800274c:	bd70      	pop	{r4, r5, r6, pc}

0800274e <USBD_LL_SetSpeed>:
 800274e:	7401      	strb	r1, [r0, #16]
 8002750:	2000      	movs	r0, #0
 8002752:	4770      	bx	lr

08002754 <USBD_LL_Suspend>:
 8002754:	f890 329c 	ldrb.w	r3, [r0, #668]	; 0x29c
 8002758:	f880 329d 	strb.w	r3, [r0, #669]	; 0x29d
 800275c:	2304      	movs	r3, #4
 800275e:	f880 329c 	strb.w	r3, [r0, #668]	; 0x29c
 8002762:	2000      	movs	r0, #0
 8002764:	4770      	bx	lr

08002766 <USBD_LL_Resume>:
 8002766:	f890 329c 	ldrb.w	r3, [r0, #668]	; 0x29c
 800276a:	2b04      	cmp	r3, #4
 800276c:	bf04      	itt	eq
 800276e:	f890 329d 	ldrbeq.w	r3, [r0, #669]	; 0x29d
 8002772:	f880 329c 	strbeq.w	r3, [r0, #668]	; 0x29c
 8002776:	2000      	movs	r0, #0
 8002778:	4770      	bx	lr

0800277a <USBD_LL_SOF>:
 800277a:	b508      	push	{r3, lr}
 800277c:	f890 229c 	ldrb.w	r2, [r0, #668]	; 0x29c
 8002780:	2a03      	cmp	r2, #3
 8002782:	d104      	bne.n	800278e <USBD_LL_SOF+0x14>
 8002784:	f8d0 32b4 	ldr.w	r3, [r0, #692]	; 0x2b4
 8002788:	69db      	ldr	r3, [r3, #28]
 800278a:	b103      	cbz	r3, 800278e <USBD_LL_SOF+0x14>
 800278c:	4798      	blx	r3
 800278e:	2000      	movs	r0, #0
 8002790:	bd08      	pop	{r3, pc}

08002792 <USBD_CtlError.constprop.0>:
 8002792:	b510      	push	{r4, lr}
 8002794:	4604      	mov	r4, r0
 8002796:	2180      	movs	r1, #128	; 0x80
 8002798:	f000 fb9a 	bl	8002ed0 <USBD_LL_StallEP>
 800279c:	4620      	mov	r0, r4
 800279e:	e8bd 4010 	ldmia.w	sp!, {r4, lr}
 80027a2:	2100      	movs	r1, #0
 80027a4:	f000 bb94 	b.w	8002ed0 <USBD_LL_StallEP>

080027a8 <USBD_StdDevReq>:
 80027a8:	b537      	push	{r0, r1, r2, r4, r5, lr}
 80027aa:	780b      	ldrb	r3, [r1, #0]
 80027ac:	4604      	mov	r4, r0
 80027ae:	f003 0360 	and.w	r3, r3, #96	; 0x60
 80027b2:	2b20      	cmp	r3, #32
 80027b4:	460d      	mov	r5, r1
 80027b6:	d012      	beq.n	80027de <USBD_StdDevReq+0x36>
 80027b8:	2b40      	cmp	r3, #64	; 0x40
 80027ba:	d010      	beq.n	80027de <USBD_StdDevReq+0x36>
 80027bc:	2b00      	cmp	r3, #0
 80027be:	d151      	bne.n	8002864 <USBD_StdDevReq+0xbc>
 80027c0:	784b      	ldrb	r3, [r1, #1]
 80027c2:	2b09      	cmp	r3, #9
 80027c4:	d84e      	bhi.n	8002864 <USBD_StdDevReq+0xbc>
 80027c6:	e8df f013 	tbh	[pc, r3, lsl #1]
 80027ca:	00ee      	.short	0x00ee
 80027cc:	004d0109 	.word	0x004d0109
 80027d0:	004d0102 	.word	0x004d0102
 80027d4:	00130087 	.word	0x00130087
 80027d8:	00d6004d 	.word	0x00d6004d
 80027dc:	00a3      	.short	0x00a3
 80027de:	f8d4 32b4 	ldr.w	r3, [r4, #692]	; 0x2b4
 80027e2:	4629      	mov	r1, r5
 80027e4:	4620      	mov	r0, r4
 80027e6:	689b      	ldr	r3, [r3, #8]
 80027e8:	4798      	blx	r3
 80027ea:	2000      	movs	r0, #0
 80027ec:	b003      	add	sp, #12
 80027ee:	bd30      	pop	{r4, r5, pc}
 80027f0:	2300      	movs	r3, #0
 80027f2:	f8ad 3006 	strh.w	r3, [sp, #6]
 80027f6:	884b      	ldrh	r3, [r1, #2]
 80027f8:	0a1a      	lsrs	r2, r3, #8
 80027fa:	3a01      	subs	r2, #1
 80027fc:	2a06      	cmp	r2, #6
 80027fe:	d831      	bhi.n	8002864 <USBD_StdDevReq+0xbc>
 8002800:	e8df f002 	tbb	[pc, r2]
 8002804:	30231604 	.word	0x30231604
 8002808:	4830      	.short	0x4830
 800280a:	52          	.byte	0x52
 800280b:	00          	.byte	0x00
 800280c:	f8d0 32b0 	ldr.w	r3, [r0, #688]	; 0x2b0
 8002810:	681b      	ldr	r3, [r3, #0]
 8002812:	7c20      	ldrb	r0, [r4, #16]
 8002814:	f10d 0106 	add.w	r1, sp, #6
 8002818:	4798      	blx	r3
 800281a:	f8bd 2006 	ldrh.w	r2, [sp, #6]
 800281e:	88eb      	ldrh	r3, [r5, #6]
 8002820:	2a00      	cmp	r2, #0
 8002822:	d055      	beq.n	80028d0 <USBD_StdDevReq+0x128>
 8002824:	2b00      	cmp	r3, #0
 8002826:	d14a      	bne.n	80028be <USBD_StdDevReq+0x116>
 8002828:	4620      	mov	r0, r4
 800282a:	f000 f9e9 	bl	8002c00 <USBD_CtlSendStatus>
 800282e:	e7dc      	b.n	80027ea <USBD_StdDevReq+0x42>
 8002830:	7c02      	ldrb	r2, [r0, #16]
 8002832:	f8d0 32b4 	ldr.w	r3, [r0, #692]	; 0x2b4
 8002836:	b932      	cbnz	r2, 8002846 <USBD_StdDevReq+0x9e>
 8002838:	6a9b      	ldr	r3, [r3, #40]	; 0x28
 800283a:	f10d 0006 	add.w	r0, sp, #6
 800283e:	4798      	blx	r3
 8002840:	2302      	movs	r3, #2
 8002842:	7043      	strb	r3, [r0, #1]
 8002844:	e7e9      	b.n	800281a <USBD_StdDevReq+0x72>
 8002846:	6adb      	ldr	r3, [r3, #44]	; 0x2c
 8002848:	e7f7      	b.n	800283a <USBD_StdDevReq+0x92>
 800284a:	b2db      	uxtb	r3, r3
 800284c:	2b05      	cmp	r3, #5
 800284e:	d809      	bhi.n	8002864 <USBD_StdDevReq+0xbc>
 8002850:	e8df f003 	tbb	[pc, r3]
 8002854:	14100c03 	.word	0x14100c03
 8002858:	1c18      	.short	0x1c18
 800285a:	f8d0 32b0 	ldr.w	r3, [r0, #688]	; 0x2b0
 800285e:	685b      	ldr	r3, [r3, #4]
 8002860:	2b00      	cmp	r3, #0
 8002862:	d1d6      	bne.n	8002812 <USBD_StdDevReq+0x6a>
 8002864:	4620      	mov	r0, r4
 8002866:	f7ff ff94 	bl	8002792 <USBD_CtlError.constprop.0>
 800286a:	e7be      	b.n	80027ea <USBD_StdDevReq+0x42>
 800286c:	f8d0 32b0 	ldr.w	r3, [r0, #688]	; 0x2b0
 8002870:	689b      	ldr	r3, [r3, #8]
 8002872:	e7f5      	b.n	8002860 <USBD_StdDevReq+0xb8>
 8002874:	f8d0 32b0 	ldr.w	r3, [r0, #688]	; 0x2b0
 8002878:	68db      	ldr	r3, [r3, #12]
 800287a:	e7f1      	b.n	8002860 <USBD_StdDevReq+0xb8>
 800287c:	f8d0 32b0 	ldr.w	r3, [r0, #688]	; 0x2b0
 8002880:	691b      	ldr	r3, [r3, #16]
 8002882:	e7ed      	b.n	8002860 <USBD_StdDevReq+0xb8>
 8002884:	f8d0 32b0 	ldr.w	r3, [r0, #688]	; 0x2b0
 8002888:	695b      	ldr	r3, [r3, #20]
 800288a:	e7e9      	b.n	8002860 <USBD_StdDevReq+0xb8>
 800288c:	f8d0 32b0 	ldr.w	r3, [r0, #688]	; 0x2b0
 8002890:	699b      	ldr	r3, [r3, #24]
 8002892:	e7e5      	b.n	8002860 <USBD_StdDevReq+0xb8>
 8002894:	7c03      	ldrb	r3, [r0, #16]
 8002896:	2b00      	cmp	r3, #0
 8002898:	d1e4      	bne.n	8002864 <USBD_StdDevReq+0xbc>
 800289a:	f8d0 32b4 	ldr.w	r3, [r0, #692]	; 0x2b4
 800289e:	f10d 0006 	add.w	r0, sp, #6
 80028a2:	6b5b      	ldr	r3, [r3, #52]	; 0x34
 80028a4:	4798      	blx	r3
 80028a6:	e7b8      	b.n	800281a <USBD_StdDevReq+0x72>
 80028a8:	7c03      	ldrb	r3, [r0, #16]
 80028aa:	2b00      	cmp	r3, #0
 80028ac:	d1da      	bne.n	8002864 <USBD_StdDevReq+0xbc>
 80028ae:	f8d0 32b4 	ldr.w	r3, [r0, #692]	; 0x2b4
 80028b2:	f10d 0006 	add.w	r0, sp, #6
 80028b6:	6b1b      	ldr	r3, [r3, #48]	; 0x30
 80028b8:	4798      	blx	r3
 80028ba:	2307      	movs	r3, #7
 80028bc:	e7c1      	b.n	8002842 <USBD_StdDevReq+0x9a>
 80028be:	429a      	cmp	r2, r3
 80028c0:	bf28      	it	cs
 80028c2:	461a      	movcs	r2, r3
 80028c4:	4601      	mov	r1, r0
 80028c6:	4620      	mov	r0, r4
 80028c8:	f8ad 2006 	strh.w	r2, [sp, #6]
 80028cc:	f000 f97b 	bl	8002bc6 <USBD_CtlSendData>
 80028d0:	88eb      	ldrh	r3, [r5, #6]
 80028d2:	2b00      	cmp	r3, #0
 80028d4:	d189      	bne.n	80027ea <USBD_StdDevReq+0x42>
 80028d6:	e7a7      	b.n	8002828 <USBD_StdDevReq+0x80>
 80028d8:	888b      	ldrh	r3, [r1, #4]
 80028da:	2b00      	cmp	r3, #0
 80028dc:	d1c2      	bne.n	8002864 <USBD_StdDevReq+0xbc>
 80028de:	88cb      	ldrh	r3, [r1, #6]
 80028e0:	2b00      	cmp	r3, #0
 80028e2:	d1bf      	bne.n	8002864 <USBD_StdDevReq+0xbc>
 80028e4:	884d      	ldrh	r5, [r1, #2]
 80028e6:	2d7f      	cmp	r5, #127	; 0x7f
 80028e8:	d8bc      	bhi.n	8002864 <USBD_StdDevReq+0xbc>
 80028ea:	f890 329c 	ldrb.w	r3, [r0, #668]	; 0x29c
 80028ee:	2b03      	cmp	r3, #3
 80028f0:	d0b8      	beq.n	8002864 <USBD_StdDevReq+0xbc>
 80028f2:	b2e9      	uxtb	r1, r5
 80028f4:	f880 129e 	strb.w	r1, [r0, #670]	; 0x29e
 80028f8:	f000 fb0e 	bl	8002f18 <USBD_LL_SetUSBAddress>
 80028fc:	4620      	mov	r0, r4
 80028fe:	f000 f97f 	bl	8002c00 <USBD_CtlSendStatus>
 8002902:	b11d      	cbz	r5, 800290c <USBD_StdDevReq+0x164>
 8002904:	2302      	movs	r3, #2
 8002906:	f884 329c 	strb.w	r3, [r4, #668]	; 0x29c
 800290a:	e76e      	b.n	80027ea <USBD_StdDevReq+0x42>
 800290c:	2301      	movs	r3, #1
 800290e:	e7fa      	b.n	8002906 <USBD_StdDevReq+0x15e>
 8002910:	7889      	ldrb	r1, [r1, #2]
 8002912:	4d38      	ldr	r5, [pc, #224]	; (80029f4 <USBD_StdDevReq+0x24c>)
 8002914:	2901      	cmp	r1, #1
 8002916:	7029      	strb	r1, [r5, #0]
 8002918:	d8a4      	bhi.n	8002864 <USBD_StdDevReq+0xbc>
 800291a:	f890 329c 	ldrb.w	r3, [r0, #668]	; 0x29c
 800291e:	2b02      	cmp	r3, #2
 8002920:	d008      	beq.n	8002934 <USBD_StdDevReq+0x18c>
 8002922:	2b03      	cmp	r3, #3
 8002924:	d015      	beq.n	8002952 <USBD_StdDevReq+0x1aa>
 8002926:	f7ff ff34 	bl	8002792 <USBD_CtlError.constprop.0>
 800292a:	4620      	mov	r0, r4
 800292c:	7829      	ldrb	r1, [r5, #0]
 800292e:	f7ff fe1e 	bl	800256e <USBD_ClrClassConfig>
 8002932:	e75a      	b.n	80027ea <USBD_StdDevReq+0x42>
 8002934:	2900      	cmp	r1, #0
 8002936:	f43f af77 	beq.w	8002828 <USBD_StdDevReq+0x80>
 800293a:	2101      	movs	r1, #1
 800293c:	2303      	movs	r3, #3
 800293e:	6041      	str	r1, [r0, #4]
 8002940:	f880 329c 	strb.w	r3, [r0, #668]	; 0x29c
 8002944:	4620      	mov	r0, r4
 8002946:	f7ff fe05 	bl	8002554 <USBD_SetClassConfig>
 800294a:	2802      	cmp	r0, #2
 800294c:	f47f af6c 	bne.w	8002828 <USBD_StdDevReq+0x80>
 8002950:	e788      	b.n	8002864 <USBD_StdDevReq+0xbc>
 8002952:	b931      	cbnz	r1, 8002962 <USBD_StdDevReq+0x1ba>
 8002954:	2302      	movs	r3, #2
 8002956:	6041      	str	r1, [r0, #4]
 8002958:	f880 329c 	strb.w	r3, [r0, #668]	; 0x29c
 800295c:	f7ff fe07 	bl	800256e <USBD_ClrClassConfig>
 8002960:	e762      	b.n	8002828 <USBD_StdDevReq+0x80>
 8002962:	6841      	ldr	r1, [r0, #4]
 8002964:	2901      	cmp	r1, #1
 8002966:	f43f af5f 	beq.w	8002828 <USBD_StdDevReq+0x80>
 800296a:	b2c9      	uxtb	r1, r1
 800296c:	f7ff fdff 	bl	800256e <USBD_ClrClassConfig>
 8002970:	7829      	ldrb	r1, [r5, #0]
 8002972:	6061      	str	r1, [r4, #4]
 8002974:	e7e6      	b.n	8002944 <USBD_StdDevReq+0x19c>
 8002976:	88ca      	ldrh	r2, [r1, #6]
 8002978:	2a01      	cmp	r2, #1
 800297a:	f47f af73 	bne.w	8002864 <USBD_StdDevReq+0xbc>
 800297e:	f890 329c 	ldrb.w	r3, [r0, #668]	; 0x29c
 8002982:	2b02      	cmp	r3, #2
 8002984:	d80a      	bhi.n	800299c <USBD_StdDevReq+0x1f4>
 8002986:	2b00      	cmp	r3, #0
 8002988:	f43f af6c 	beq.w	8002864 <USBD_StdDevReq+0xbc>
 800298c:	4601      	mov	r1, r0
 800298e:	2300      	movs	r3, #0
 8002990:	f841 3f08 	str.w	r3, [r1, #8]!
 8002994:	4620      	mov	r0, r4
 8002996:	f000 f916 	bl	8002bc6 <USBD_CtlSendData>
 800299a:	e726      	b.n	80027ea <USBD_StdDevReq+0x42>
 800299c:	2b03      	cmp	r3, #3
 800299e:	f47f af61 	bne.w	8002864 <USBD_StdDevReq+0xbc>
 80029a2:	1d01      	adds	r1, r0, #4
 80029a4:	e7f6      	b.n	8002994 <USBD_StdDevReq+0x1ec>
 80029a6:	f890 329c 	ldrb.w	r3, [r0, #668]	; 0x29c
 80029aa:	3b01      	subs	r3, #1
 80029ac:	2b02      	cmp	r3, #2
 80029ae:	f63f af59 	bhi.w	8002864 <USBD_StdDevReq+0xbc>
 80029b2:	88ca      	ldrh	r2, [r1, #6]
 80029b4:	2a02      	cmp	r2, #2
 80029b6:	f47f af55 	bne.w	8002864 <USBD_StdDevReq+0xbc>
 80029ba:	f8d0 32a4 	ldr.w	r3, [r0, #676]	; 0x2a4
 80029be:	4601      	mov	r1, r0
 80029c0:	2b00      	cmp	r3, #0
 80029c2:	bf14      	ite	ne
 80029c4:	2303      	movne	r3, #3
 80029c6:	2301      	moveq	r3, #1
 80029c8:	f841 3f0c 	str.w	r3, [r1, #12]!
 80029cc:	e7e2      	b.n	8002994 <USBD_StdDevReq+0x1ec>
 80029ce:	884b      	ldrh	r3, [r1, #2]
 80029d0:	2b01      	cmp	r3, #1
 80029d2:	f47f af0a 	bne.w	80027ea <USBD_StdDevReq+0x42>
 80029d6:	f8c4 32a4 	str.w	r3, [r4, #676]	; 0x2a4
 80029da:	e725      	b.n	8002828 <USBD_StdDevReq+0x80>
 80029dc:	f890 329c 	ldrb.w	r3, [r0, #668]	; 0x29c
 80029e0:	3b01      	subs	r3, #1
 80029e2:	2b02      	cmp	r3, #2
 80029e4:	f63f af3e 	bhi.w	8002864 <USBD_StdDevReq+0xbc>
 80029e8:	884b      	ldrh	r3, [r1, #2]
 80029ea:	2b01      	cmp	r3, #1
 80029ec:	f47f aefd 	bne.w	80027ea <USBD_StdDevReq+0x42>
 80029f0:	2300      	movs	r3, #0
 80029f2:	e7f0      	b.n	80029d6 <USBD_StdDevReq+0x22e>
 80029f4:	20000184 	.word	0x20000184

080029f8 <USBD_StdItfReq>:
 80029f8:	b538      	push	{r3, r4, r5, lr}
 80029fa:	780b      	ldrb	r3, [r1, #0]
 80029fc:	4604      	mov	r4, r0
 80029fe:	f003 0260 	and.w	r2, r3, #96	; 0x60
 8002a02:	2a40      	cmp	r2, #64	; 0x40
 8002a04:	460d      	mov	r5, r1
 8002a06:	d001      	beq.n	8002a0c <USBD_StdItfReq+0x14>
 8002a08:	065b      	lsls	r3, r3, #25
 8002a0a:	d415      	bmi.n	8002a38 <USBD_StdItfReq+0x40>
 8002a0c:	f894 329c 	ldrb.w	r3, [r4, #668]	; 0x29c
 8002a10:	3b01      	subs	r3, #1
 8002a12:	2b02      	cmp	r3, #2
 8002a14:	d810      	bhi.n	8002a38 <USBD_StdItfReq+0x40>
 8002a16:	792b      	ldrb	r3, [r5, #4]
 8002a18:	2b01      	cmp	r3, #1
 8002a1a:	d80d      	bhi.n	8002a38 <USBD_StdItfReq+0x40>
 8002a1c:	f8d4 32b4 	ldr.w	r3, [r4, #692]	; 0x2b4
 8002a20:	4629      	mov	r1, r5
 8002a22:	689b      	ldr	r3, [r3, #8]
 8002a24:	4620      	mov	r0, r4
 8002a26:	4798      	blx	r3
 8002a28:	88eb      	ldrh	r3, [r5, #6]
 8002a2a:	b91b      	cbnz	r3, 8002a34 <USBD_StdItfReq+0x3c>
 8002a2c:	b910      	cbnz	r0, 8002a34 <USBD_StdItfReq+0x3c>
 8002a2e:	4620      	mov	r0, r4
 8002a30:	f000 f8e6 	bl	8002c00 <USBD_CtlSendStatus>
 8002a34:	2000      	movs	r0, #0
 8002a36:	bd38      	pop	{r3, r4, r5, pc}
 8002a38:	4620      	mov	r0, r4
 8002a3a:	f7ff feaa 	bl	8002792 <USBD_CtlError.constprop.0>
 8002a3e:	e7f9      	b.n	8002a34 <USBD_StdItfReq+0x3c>

08002a40 <USBD_StdEPReq>:
 8002a40:	b538      	push	{r3, r4, r5, lr}
 8002a42:	780a      	ldrb	r2, [r1, #0]
 8002a44:	4604      	mov	r4, r0
 8002a46:	f002 0260 	and.w	r2, r2, #96	; 0x60
 8002a4a:	2a20      	cmp	r2, #32
 8002a4c:	460b      	mov	r3, r1
 8002a4e:	888d      	ldrh	r5, [r1, #4]
 8002a50:	d02c      	beq.n	8002aac <USBD_StdEPReq+0x6c>
 8002a52:	2a40      	cmp	r2, #64	; 0x40
 8002a54:	d02a      	beq.n	8002aac <USBD_StdEPReq+0x6c>
 8002a56:	bbba      	cbnz	r2, 8002ac8 <USBD_StdEPReq+0x88>
 8002a58:	785a      	ldrb	r2, [r3, #1]
 8002a5a:	b2e9      	uxtb	r1, r5
 8002a5c:	2a01      	cmp	r2, #1
 8002a5e:	d043      	beq.n	8002ae8 <USBD_StdEPReq+0xa8>
 8002a60:	2a03      	cmp	r2, #3
 8002a62:	d02b      	beq.n	8002abc <USBD_StdEPReq+0x7c>
 8002a64:	bb82      	cbnz	r2, 8002ac8 <USBD_StdEPReq+0x88>
 8002a66:	f890 329c 	ldrb.w	r3, [r0, #668]	; 0x29c
 8002a6a:	2b02      	cmp	r3, #2
 8002a6c:	d053      	beq.n	8002b16 <USBD_StdEPReq+0xd6>
 8002a6e:	2b03      	cmp	r3, #3
 8002a70:	d12a      	bne.n	8002ac8 <USBD_StdEPReq+0x88>
 8002a72:	2214      	movs	r2, #20
 8002a74:	f001 030f 	and.w	r3, r1, #15
 8002a78:	f015 0f80 	tst.w	r5, #128	; 0x80
 8002a7c:	fb02 0303 	mla	r3, r2, r3, r0
 8002a80:	d05a      	beq.n	8002b38 <USBD_StdEPReq+0xf8>
 8002a82:	699b      	ldr	r3, [r3, #24]
 8002a84:	b303      	cbz	r3, 8002ac8 <USBD_StdEPReq+0x88>
 8002a86:	2514      	movs	r5, #20
 8002a88:	f001 037f 	and.w	r3, r1, #127	; 0x7f
 8002a8c:	fb03 5505 	mla	r5, r3, r5, r5
 8002a90:	4405      	add	r5, r0
 8002a92:	f011 007f 	ands.w	r0, r1, #127	; 0x7f
 8002a96:	d005      	beq.n	8002aa4 <USBD_StdEPReq+0x64>
 8002a98:	4620      	mov	r0, r4
 8002a9a:	f000 fa2b 	bl	8002ef4 <USBD_LL_IsStallEP>
 8002a9e:	3800      	subs	r0, #0
 8002aa0:	bf18      	it	ne
 8002aa2:	2001      	movne	r0, #1
 8002aa4:	2202      	movs	r2, #2
 8002aa6:	4629      	mov	r1, r5
 8002aa8:	6028      	str	r0, [r5, #0]
 8002aaa:	e041      	b.n	8002b30 <USBD_StdEPReq+0xf0>
 8002aac:	f8d4 22b4 	ldr.w	r2, [r4, #692]	; 0x2b4
 8002ab0:	4619      	mov	r1, r3
 8002ab2:	4620      	mov	r0, r4
 8002ab4:	6892      	ldr	r2, [r2, #8]
 8002ab6:	4790      	blx	r2
 8002ab8:	2000      	movs	r0, #0
 8002aba:	bd38      	pop	{r3, r4, r5, pc}
 8002abc:	f890 229c 	ldrb.w	r2, [r0, #668]	; 0x29c
 8002ac0:	2a02      	cmp	r2, #2
 8002ac2:	d01f      	beq.n	8002b04 <USBD_StdEPReq+0xc4>
 8002ac4:	2a03      	cmp	r2, #3
 8002ac6:	d003      	beq.n	8002ad0 <USBD_StdEPReq+0x90>
 8002ac8:	4620      	mov	r0, r4
 8002aca:	f7ff fe62 	bl	8002792 <USBD_CtlError.constprop.0>
 8002ace:	e7f3      	b.n	8002ab8 <USBD_StdEPReq+0x78>
 8002ad0:	885a      	ldrh	r2, [r3, #2]
 8002ad2:	b92a      	cbnz	r2, 8002ae0 <USBD_StdEPReq+0xa0>
 8002ad4:	064a      	lsls	r2, r1, #25
 8002ad6:	d003      	beq.n	8002ae0 <USBD_StdEPReq+0xa0>
 8002ad8:	88db      	ldrh	r3, [r3, #6]
 8002ada:	b90b      	cbnz	r3, 8002ae0 <USBD_StdEPReq+0xa0>
 8002adc:	f000 f9f8 	bl	8002ed0 <USBD_LL_StallEP>
 8002ae0:	4620      	mov	r0, r4
 8002ae2:	f000 f88d 	bl	8002c00 <USBD_CtlSendStatus>
 8002ae6:	e7e7      	b.n	8002ab8 <USBD_StdEPReq+0x78>
 8002ae8:	f890 229c 	ldrb.w	r2, [r0, #668]	; 0x29c
 8002aec:	2a02      	cmp	r2, #2
 8002aee:	d009      	beq.n	8002b04 <USBD_StdEPReq+0xc4>
 8002af0:	2a03      	cmp	r2, #3
 8002af2:	d1e9      	bne.n	8002ac8 <USBD_StdEPReq+0x88>
 8002af4:	885b      	ldrh	r3, [r3, #2]
 8002af6:	2b00      	cmp	r3, #0
 8002af8:	d1de      	bne.n	8002ab8 <USBD_StdEPReq+0x78>
 8002afa:	064d      	lsls	r5, r1, #25
 8002afc:	d0f0      	beq.n	8002ae0 <USBD_StdEPReq+0xa0>
 8002afe:	f000 f9f0 	bl	8002ee2 <USBD_LL_ClearStallEP>
 8002b02:	e7ed      	b.n	8002ae0 <USBD_StdEPReq+0xa0>
 8002b04:	064b      	lsls	r3, r1, #25
 8002b06:	d0df      	beq.n	8002ac8 <USBD_StdEPReq+0x88>
 8002b08:	f000 f9e2 	bl	8002ed0 <USBD_LL_StallEP>
 8002b0c:	2180      	movs	r1, #128	; 0x80
 8002b0e:	4620      	mov	r0, r4
 8002b10:	f000 f9de 	bl	8002ed0 <USBD_LL_StallEP>
 8002b14:	e7d0      	b.n	8002ab8 <USBD_StdEPReq+0x78>
 8002b16:	064a      	lsls	r2, r1, #25
 8002b18:	d1d6      	bne.n	8002ac8 <USBD_StdEPReq+0x88>
 8002b1a:	062b      	lsls	r3, r5, #24
 8002b1c:	f04f 0300 	mov.w	r3, #0
 8002b20:	f04f 0202 	mov.w	r2, #2
 8002b24:	bf4c      	ite	mi
 8002b26:	f100 0114 	addmi.w	r1, r0, #20
 8002b2a:	f500 71aa 	addpl.w	r1, r0, #340	; 0x154
 8002b2e:	600b      	str	r3, [r1, #0]
 8002b30:	4620      	mov	r0, r4
 8002b32:	f000 f848 	bl	8002bc6 <USBD_CtlSendData>
 8002b36:	e7bf      	b.n	8002ab8 <USBD_StdEPReq+0x78>
 8002b38:	f8d3 3158 	ldr.w	r3, [r3, #344]	; 0x158
 8002b3c:	2b00      	cmp	r3, #0
 8002b3e:	d0c3      	beq.n	8002ac8 <USBD_StdEPReq+0x88>
 8002b40:	2314      	movs	r3, #20
 8002b42:	f001 057f 	and.w	r5, r1, #127	; 0x7f
 8002b46:	fb03 0505 	mla	r5, r3, r5, r0
 8002b4a:	f505 75aa 	add.w	r5, r5, #340	; 0x154
 8002b4e:	e7a0      	b.n	8002a92 <USBD_StdEPReq+0x52>

08002b50 <USBD_ParseSetupRequest>:
 8002b50:	780b      	ldrb	r3, [r1, #0]
 8002b52:	7003      	strb	r3, [r0, #0]
 8002b54:	784b      	ldrb	r3, [r1, #1]
 8002b56:	7043      	strb	r3, [r0, #1]
 8002b58:	78ca      	ldrb	r2, [r1, #3]
 8002b5a:	788b      	ldrb	r3, [r1, #2]
 8002b5c:	eb03 2302 	add.w	r3, r3, r2, lsl #8
 8002b60:	8043      	strh	r3, [r0, #2]
 8002b62:	794a      	ldrb	r2, [r1, #5]
 8002b64:	790b      	ldrb	r3, [r1, #4]
 8002b66:	eb03 2302 	add.w	r3, r3, r2, lsl #8
 8002b6a:	8083      	strh	r3, [r0, #4]
 8002b6c:	79ca      	ldrb	r2, [r1, #7]
 8002b6e:	798b      	ldrb	r3, [r1, #6]
 8002b70:	eb03 2302 	add.w	r3, r3, r2, lsl #8
 8002b74:	80c3      	strh	r3, [r0, #6]
 8002b76:	4770      	bx	lr

08002b78 <USBD_CtlError>:
 8002b78:	b510      	push	{r4, lr}
 8002b7a:	4604      	mov	r4, r0
 8002b7c:	2180      	movs	r1, #128	; 0x80
 8002b7e:	f000 f9a7 	bl	8002ed0 <USBD_LL_StallEP>
 8002b82:	4620      	mov	r0, r4
 8002b84:	e8bd 4010 	ldmia.w	sp!, {r4, lr}
 8002b88:	2100      	movs	r1, #0
 8002b8a:	f000 b9a1 	b.w	8002ed0 <USBD_LL_StallEP>

08002b8e <USBD_GetString>:
 8002b8e:	b530      	push	{r4, r5, lr}
 8002b90:	b188      	cbz	r0, 8002bb6 <USBD_GetString+0x28>
 8002b92:	2400      	movs	r4, #0
 8002b94:	3801      	subs	r0, #1
 8002b96:	4623      	mov	r3, r4
 8002b98:	3401      	adds	r4, #1
 8002b9a:	5d05      	ldrb	r5, [r0, r4]
 8002b9c:	2d00      	cmp	r5, #0
 8002b9e:	d1fa      	bne.n	8002b96 <USBD_GetString+0x8>
 8002ba0:	b2db      	uxtb	r3, r3
 8002ba2:	3301      	adds	r3, #1
 8002ba4:	005b      	lsls	r3, r3, #1
 8002ba6:	8013      	strh	r3, [r2, #0]
 8002ba8:	700b      	strb	r3, [r1, #0]
 8002baa:	2303      	movs	r3, #3
 8002bac:	704b      	strb	r3, [r1, #1]
 8002bae:	2302      	movs	r3, #2
 8002bb0:	f810 4f01 	ldrb.w	r4, [r0, #1]!
 8002bb4:	b904      	cbnz	r4, 8002bb8 <USBD_GetString+0x2a>
 8002bb6:	bd30      	pop	{r4, r5, pc}
 8002bb8:	1c5a      	adds	r2, r3, #1
 8002bba:	54cc      	strb	r4, [r1, r3]
 8002bbc:	b2d2      	uxtb	r2, r2
 8002bbe:	3302      	adds	r3, #2
 8002bc0:	b2db      	uxtb	r3, r3
 8002bc2:	548d      	strb	r5, [r1, r2]
 8002bc4:	e7f4      	b.n	8002bb0 <USBD_GetString+0x22>

08002bc6 <USBD_CtlSendData>:
 8002bc6:	4613      	mov	r3, r2
 8002bc8:	2202      	movs	r2, #2
 8002bca:	b510      	push	{r4, lr}
 8002bcc:	e9c0 3307 	strd	r3, r3, [r0, #28]
 8002bd0:	f8c0 2294 	str.w	r2, [r0, #660]	; 0x294
 8002bd4:	460a      	mov	r2, r1
 8002bd6:	2100      	movs	r1, #0
 8002bd8:	f000 f9a7 	bl	8002f2a <USBD_LL_Transmit>
 8002bdc:	2000      	movs	r0, #0
 8002bde:	bd10      	pop	{r4, pc}

08002be0 <USBD_CtlContinueSendData>:
 8002be0:	b508      	push	{r3, lr}
 8002be2:	4613      	mov	r3, r2
 8002be4:	460a      	mov	r2, r1
 8002be6:	2100      	movs	r1, #0
 8002be8:	f000 f99f 	bl	8002f2a <USBD_LL_Transmit>
 8002bec:	2000      	movs	r0, #0
 8002bee:	bd08      	pop	{r3, pc}

08002bf0 <USBD_CtlContinueRx>:
 8002bf0:	b508      	push	{r3, lr}
 8002bf2:	4613      	mov	r3, r2
 8002bf4:	460a      	mov	r2, r1
 8002bf6:	2100      	movs	r1, #0
 8002bf8:	f000 f9a0 	bl	8002f3c <USBD_LL_PrepareReceive>
 8002bfc:	2000      	movs	r0, #0
 8002bfe:	bd08      	pop	{r3, pc}

08002c00 <USBD_CtlSendStatus>:
 8002c00:	b508      	push	{r3, lr}
 8002c02:	2304      	movs	r3, #4
 8002c04:	f8c0 3294 	str.w	r3, [r0, #660]	; 0x294
 8002c08:	2300      	movs	r3, #0
 8002c0a:	461a      	mov	r2, r3
 8002c0c:	4619      	mov	r1, r3
 8002c0e:	f000 f98c 	bl	8002f2a <USBD_LL_Transmit>
 8002c12:	2000      	movs	r0, #0
 8002c14:	bd08      	pop	{r3, pc}

08002c16 <USBD_CtlReceiveStatus>:
 8002c16:	b508      	push	{r3, lr}
 8002c18:	2305      	movs	r3, #5
 8002c1a:	f8c0 3294 	str.w	r3, [r0, #660]	; 0x294
 8002c1e:	2300      	movs	r3, #0
 8002c20:	461a      	mov	r2, r3
 8002c22:	4619      	mov	r1, r3
 8002c24:	f000 f98a 	bl	8002f3c <USBD_LL_PrepareReceive>
 8002c28:	2000      	movs	r0, #0
 8002c2a:	bd08      	pop	{r3, pc}

08002c2c <MX_USB_DEVICE_Init>:
 8002c2c:	b508      	push	{r3, lr}
 8002c2e:	2200      	movs	r2, #0
 8002c30:	490b      	ldr	r1, [pc, #44]	; (8002c60 <MX_USB_DEVICE_Init+0x34>)
 8002c32:	480c      	ldr	r0, [pc, #48]	; (8002c64 <MX_USB_DEVICE_Init+0x38>)
 8002c34:	f7ff fc6d 	bl	8002512 <USBD_Init>
 8002c38:	b108      	cbz	r0, 8002c3e <MX_USB_DEVICE_Init+0x12>
 8002c3a:	f7fd fb39 	bl	80002b0 <Error_Handler>
 8002c3e:	490a      	ldr	r1, [pc, #40]	; (8002c68 <MX_USB_DEVICE_Init+0x3c>)
 8002c40:	4808      	ldr	r0, [pc, #32]	; (8002c64 <MX_USB_DEVICE_Init+0x38>)
 8002c42:	f7ff fc7b 	bl	800253c <USBD_RegisterClass>
 8002c46:	b108      	cbz	r0, 8002c4c <MX_USB_DEVICE_Init+0x20>
 8002c48:	f7fd fb32 	bl	80002b0 <Error_Handler>
 8002c4c:	4805      	ldr	r0, [pc, #20]	; (8002c64 <MX_USB_DEVICE_Init+0x38>)
 8002c4e:	f7ff fc7c 	bl	800254a <USBD_Start>
 8002c52:	b118      	cbz	r0, 8002c5c <MX_USB_DEVICE_Init+0x30>
 8002c54:	e8bd 4008 	ldmia.w	sp!, {r3, lr}
 8002c58:	f7fd bb2a 	b.w	80002b0 <Error_Handler>
 8002c5c:	bd08      	pop	{r3, pc}
 8002c5e:	bf00      	nop
 8002c60:	20000114 	.word	0x20000114
 8002c64:	20000188 	.word	0x20000188
 8002c68:	20000058 	.word	0x20000058

08002c6c <USBD_FS_DeviceDescriptor>:
 8002c6c:	2312      	movs	r3, #18
 8002c6e:	4801      	ldr	r0, [pc, #4]	; (8002c74 <USBD_FS_DeviceDescriptor+0x8>)
 8002c70:	800b      	strh	r3, [r1, #0]
 8002c72:	4770      	bx	lr
 8002c74:	20000130 	.word	0x20000130

08002c78 <USBD_FS_LangIDStrDescriptor>:
 8002c78:	2304      	movs	r3, #4
 8002c7a:	4801      	ldr	r0, [pc, #4]	; (8002c80 <USBD_FS_LangIDStrDescriptor+0x8>)
 8002c7c:	800b      	strh	r3, [r1, #0]
 8002c7e:	4770      	bx	lr
 8002c80:	20000144 	.word	0x20000144

08002c84 <IntToUnicode>:
 8002c84:	2300      	movs	r3, #0
 8002c86:	b570      	push	{r4, r5, r6, lr}
 8002c88:	461e      	mov	r6, r3
 8002c8a:	1c4d      	adds	r5, r1, #1
 8002c8c:	0f04      	lsrs	r4, r0, #28
 8002c8e:	f1b0 4f20 	cmp.w	r0, #2684354560	; 0xa0000000
 8002c92:	bf34      	ite	cc
 8002c94:	3430      	addcc	r4, #48	; 0x30
 8002c96:	3437      	addcs	r4, #55	; 0x37
 8002c98:	f801 4013 	strb.w	r4, [r1, r3, lsl #1]
 8002c9c:	f805 6013 	strb.w	r6, [r5, r3, lsl #1]
 8002ca0:	3301      	adds	r3, #1
 8002ca2:	b2dc      	uxtb	r4, r3
 8002ca4:	42a2      	cmp	r2, r4
 8002ca6:	ea4f 1000 	mov.w	r0, r0, lsl #4
 8002caa:	d8ef      	bhi.n	8002c8c <IntToUnicode+0x8>
 8002cac:	bd70      	pop	{r4, r5, r6, pc}
	...

08002cb0 <USBD_FS_SerialStrDescriptor>:
 8002cb0:	231a      	movs	r3, #26
 8002cb2:	b510      	push	{r4, lr}
 8002cb4:	800b      	strh	r3, [r1, #0]
 8002cb6:	4b0a      	ldr	r3, [pc, #40]	; (8002ce0 <USBD_FS_SerialStrDescriptor+0x30>)
 8002cb8:	f8d3 07e8 	ldr.w	r0, [r3, #2024]	; 0x7e8
 8002cbc:	f8d3 27f0 	ldr.w	r2, [r3, #2032]	; 0x7f0
 8002cc0:	1880      	adds	r0, r0, r2
 8002cc2:	d00a      	beq.n	8002cda <USBD_FS_SerialStrDescriptor+0x2a>
 8002cc4:	f8d3 47ec 	ldr.w	r4, [r3, #2028]	; 0x7ec
 8002cc8:	4906      	ldr	r1, [pc, #24]	; (8002ce4 <USBD_FS_SerialStrDescriptor+0x34>)
 8002cca:	2208      	movs	r2, #8
 8002ccc:	f7ff ffda 	bl	8002c84 <IntToUnicode>
 8002cd0:	2204      	movs	r2, #4
 8002cd2:	4620      	mov	r0, r4
 8002cd4:	3110      	adds	r1, #16
 8002cd6:	f7ff ffd5 	bl	8002c84 <IntToUnicode>
 8002cda:	4803      	ldr	r0, [pc, #12]	; (8002ce8 <USBD_FS_SerialStrDescriptor+0x38>)
 8002cdc:	bd10      	pop	{r4, pc}
 8002cde:	bf00      	nop
 8002ce0:	1ffff000 	.word	0x1ffff000
 8002ce4:	2000014a 	.word	0x2000014a
 8002ce8:	20000148 	.word	0x20000148

08002cec <USBD_FS_ManufacturerStrDescriptor>:
 8002cec:	b510      	push	{r4, lr}
 8002cee:	4c04      	ldr	r4, [pc, #16]	; (8002d00 <USBD_FS_ManufacturerStrDescriptor+0x14>)
 8002cf0:	460a      	mov	r2, r1
 8002cf2:	4804      	ldr	r0, [pc, #16]	; (8002d04 <USBD_FS_ManufacturerStrDescriptor+0x18>)
 8002cf4:	4621      	mov	r1, r4
 8002cf6:	f7ff ff4a 	bl	8002b8e <USBD_GetString>
 8002cfa:	4620      	mov	r0, r4
 8002cfc:	bd10      	pop	{r4, pc}
 8002cfe:	bf00      	nop
 8002d00:	2000044c 	.word	0x2000044c
 8002d04:	08002fee 	.word	0x08002fee

08002d08 <USBD_FS_ProductStrDescriptor>:
 8002d08:	b510      	push	{r4, lr}
 8002d0a:	4c04      	ldr	r4, [pc, #16]	; (8002d1c <USBD_FS_ProductStrDescriptor+0x14>)
 8002d0c:	460a      	mov	r2, r1
 8002d0e:	4804      	ldr	r0, [pc, #16]	; (8002d20 <USBD_FS_ProductStrDescriptor+0x18>)
 8002d10:	4621      	mov	r1, r4
 8002d12:	f7ff ff3c 	bl	8002b8e <USBD_GetString>
 8002d16:	4620      	mov	r0, r4
 8002d18:	bd10      	pop	{r4, pc}
 8002d1a:	bf00      	nop
 8002d1c:	2000044c 	.word	0x2000044c
 8002d20:	08003001 	.word	0x08003001

08002d24 <USBD_FS_ConfigStrDescriptor>:
 8002d24:	b510      	push	{r4, lr}
 8002d26:	4c04      	ldr	r4, [pc, #16]	; (8002d38 <USBD_FS_ConfigStrDescriptor+0x14>)
 8002d28:	460a      	mov	r2, r1
 8002d2a:	4804      	ldr	r0, [pc, #16]	; (8002d3c <USBD_FS_ConfigStrDescriptor+0x18>)
 8002d2c:	4621      	mov	r1, r4
 8002d2e:	f7ff ff2e 	bl	8002b8e <USBD_GetString>
 8002d32:	4620      	mov	r0, r4
 8002d34:	bd10      	pop	{r4, pc}
 8002d36:	bf00      	nop
 8002d38:	2000044c 	.word	0x2000044c
 8002d3c:	08003011 	.word	0x08003011

08002d40 <USBD_FS_InterfaceStrDescriptor>:
 8002d40:	b510      	push	{r4, lr}
 8002d42:	4c04      	ldr	r4, [pc, #16]	; (8002d54 <USBD_FS_InterfaceStrDescriptor+0x14>)
 8002d44:	460a      	mov	r2, r1
 8002d46:	4804      	ldr	r0, [pc, #16]	; (8002d58 <USBD_FS_InterfaceStrDescriptor+0x18>)
 8002d48:	4621      	mov	r1, r4
 8002d4a:	f7ff ff20 	bl	8002b8e <USBD_GetString>
 8002d4e:	4620      	mov	r0, r4
 8002d50:	bd10      	pop	{r4, pc}
 8002d52:	bf00      	nop
 8002d54:	2000044c 	.word	0x2000044c
 8002d58:	0800301c 	.word	0x0800301c

08002d5c <USBD_Get_USB_Status>:
 8002d5c:	2803      	cmp	r0, #3
 8002d5e:	bf9a      	itte	ls
 8002d60:	4b01      	ldrls	r3, [pc, #4]	; (8002d68 <USBD_Get_USB_Status+0xc>)
 8002d62:	5c18      	ldrbls	r0, [r3, r0]
 8002d64:	2002      	movhi	r0, #2
 8002d66:	4770      	bx	lr
 8002d68:	0800302a 	.word	0x0800302a

08002d6c <HAL_PCD_MspInit>:
 8002d6c:	b507      	push	{r0, r1, r2, lr}
 8002d6e:	4b0e      	ldr	r3, [pc, #56]	; (8002da8 <HAL_PCD_MspInit+0x3c>)
 8002d70:	6802      	ldr	r2, [r0, #0]
 8002d72:	429a      	cmp	r2, r3
 8002d74:	d115      	bne.n	8002da2 <HAL_PCD_MspInit+0x36>
 8002d76:	f503 33da 	add.w	r3, r3, #111616	; 0x1b400
 8002d7a:	69da      	ldr	r2, [r3, #28]
 8002d7c:	2014      	movs	r0, #20
 8002d7e:	f442 0200 	orr.w	r2, r2, #8388608	; 0x800000
 8002d82:	61da      	str	r2, [r3, #28]
 8002d84:	2200      	movs	r2, #0
 8002d86:	69db      	ldr	r3, [r3, #28]
 8002d88:	4611      	mov	r1, r2
 8002d8a:	f403 0300 	and.w	r3, r3, #8388608	; 0x800000
 8002d8e:	9301      	str	r3, [sp, #4]
 8002d90:	9b01      	ldr	r3, [sp, #4]
 8002d92:	f7fd fb55 	bl	8000440 <HAL_NVIC_SetPriority>
 8002d96:	2014      	movs	r0, #20
 8002d98:	b003      	add	sp, #12
 8002d9a:	f85d eb04 	ldr.w	lr, [sp], #4
 8002d9e:	f7fd bb7f 	b.w	80004a0 <HAL_NVIC_EnableIRQ>
 8002da2:	b003      	add	sp, #12
 8002da4:	f85d fb04 	ldr.w	pc, [sp], #4
 8002da8:	40005c00 	.word	0x40005c00

08002dac <HAL_PCD_SetupStageCallback>:
 8002dac:	f500 712c 	add.w	r1, r0, #688	; 0x2b0
 8002db0:	f8d0 02ec 	ldr.w	r0, [r0, #748]	; 0x2ec
 8002db4:	f7ff bbe2 	b.w	800257c <USBD_LL_SetupStage>

08002db8 <HAL_PCD_DataOutStageCallback>:
 8002db8:	2328      	movs	r3, #40	; 0x28
 8002dba:	fb03 0301 	mla	r3, r3, r1, r0
 8002dbe:	f8d0 02ec 	ldr.w	r0, [r0, #748]	; 0x2ec
 8002dc2:	f8d3 217c 	ldr.w	r2, [r3, #380]	; 0x17c
 8002dc6:	f7ff bc06 	b.w	80025d6 <USBD_LL_DataOutStage>

08002dca <HAL_PCD_DataInStageCallback>:
 8002dca:	2328      	movs	r3, #40	; 0x28
 8002dcc:	fb03 0301 	mla	r3, r3, r1, r0
 8002dd0:	f8d0 02ec 	ldr.w	r0, [r0, #748]	; 0x2ec
 8002dd4:	6bda      	ldr	r2, [r3, #60]	; 0x3c
 8002dd6:	f7ff bc38 	b.w	800264a <USBD_LL_DataInStage>

08002dda <HAL_PCD_SOFCallback>:
 8002dda:	f8d0 02ec 	ldr.w	r0, [r0, #748]	; 0x2ec
 8002dde:	f7ff bccc 	b.w	800277a <USBD_LL_SOF>

08002de2 <HAL_PCD_ResetCallback>:
 8002de2:	6883      	ldr	r3, [r0, #8]
 8002de4:	b510      	push	{r4, lr}
 8002de6:	2b02      	cmp	r3, #2
 8002de8:	4604      	mov	r4, r0
 8002dea:	d001      	beq.n	8002df0 <HAL_PCD_ResetCallback+0xe>
 8002dec:	f7fd fa60 	bl	80002b0 <Error_Handler>
 8002df0:	f8d4 02ec 	ldr.w	r0, [r4, #748]	; 0x2ec
 8002df4:	2101      	movs	r1, #1
 8002df6:	f7ff fcaa 	bl	800274e <USBD_LL_SetSpeed>
 8002dfa:	f8d4 02ec 	ldr.w	r0, [r4, #748]	; 0x2ec
 8002dfe:	e8bd 4010 	ldmia.w	sp!, {r4, lr}
 8002e02:	f7ff bc7d 	b.w	8002700 <USBD_LL_Reset>
	...

08002e08 <HAL_PCD_SuspendCallback>:
 8002e08:	b510      	push	{r4, lr}
 8002e0a:	4604      	mov	r4, r0
 8002e0c:	f8d0 02ec 	ldr.w	r0, [r0, #748]	; 0x2ec
 8002e10:	f7ff fca0 	bl	8002754 <USBD_LL_Suspend>
 8002e14:	69a3      	ldr	r3, [r4, #24]
 8002e16:	b123      	cbz	r3, 8002e22 <HAL_PCD_SuspendCallback+0x1a>
 8002e18:	4a02      	ldr	r2, [pc, #8]	; (8002e24 <HAL_PCD_SuspendCallback+0x1c>)
 8002e1a:	6913      	ldr	r3, [r2, #16]
 8002e1c:	f043 0306 	orr.w	r3, r3, #6
 8002e20:	6113      	str	r3, [r2, #16]
 8002e22:	bd10      	pop	{r4, pc}
 8002e24:	e000ed00 	.word	0xe000ed00

08002e28 <HAL_PCD_ResumeCallback>:
 8002e28:	f8d0 02ec 	ldr.w	r0, [r0, #748]	; 0x2ec
 8002e2c:	f7ff bc9b 	b.w	8002766 <USBD_LL_Resume>

08002e30 <USBD_LL_Init>:
 8002e30:	2308      	movs	r3, #8
 8002e32:	b510      	push	{r4, lr}
 8002e34:	4a15      	ldr	r2, [pc, #84]	; (8002e8c <USBD_LL_Init+0x5c>)
 8002e36:	4604      	mov	r4, r0
 8002e38:	4815      	ldr	r0, [pc, #84]	; (8002e90 <USBD_LL_Init+0x60>)
 8002e3a:	e9c0 2300 	strd	r2, r3, [r0]
 8002e3e:	2302      	movs	r3, #2
 8002e40:	6083      	str	r3, [r0, #8]
 8002e42:	2300      	movs	r3, #0
 8002e44:	f8c0 42ec 	str.w	r4, [r0, #748]	; 0x2ec
 8002e48:	f8c4 02c0 	str.w	r0, [r4, #704]	; 0x2c0
 8002e4c:	e9c0 3306 	strd	r3, r3, [r0, #24]
 8002e50:	6203      	str	r3, [r0, #32]
 8002e52:	f7fd fc2f 	bl	80006b4 <HAL_PCD_Init>
 8002e56:	b108      	cbz	r0, 8002e5c <USBD_LL_Init+0x2c>
 8002e58:	f7fd fa2a 	bl	80002b0 <Error_Handler>
 8002e5c:	2200      	movs	r2, #0
 8002e5e:	2318      	movs	r3, #24
 8002e60:	4611      	mov	r1, r2
 8002e62:	f8d4 02c0 	ldr.w	r0, [r4, #704]	; 0x2c0
 8002e66:	f7fe fa95 	bl	8001394 <HAL_PCDEx_PMAConfig>
 8002e6a:	2358      	movs	r3, #88	; 0x58
 8002e6c:	2200      	movs	r2, #0
 8002e6e:	2180      	movs	r1, #128	; 0x80
 8002e70:	f8d4 02c0 	ldr.w	r0, [r4, #704]	; 0x2c0
 8002e74:	f7fe fa8e 	bl	8001394 <HAL_PCDEx_PMAConfig>
 8002e78:	f44f 7380 	mov.w	r3, #256	; 0x100
 8002e7c:	2200      	movs	r2, #0
 8002e7e:	2181      	movs	r1, #129	; 0x81
 8002e80:	f8d4 02c0 	ldr.w	r0, [r4, #704]	; 0x2c0
 8002e84:	f7fe fa86 	bl	8001394 <HAL_PCDEx_PMAConfig>
 8002e88:	2000      	movs	r0, #0
 8002e8a:	bd10      	pop	{r4, pc}
 8002e8c:	40005c00 	.word	0x40005c00
 8002e90:	2000064c 	.word	0x2000064c

08002e94 <USBD_LL_Start>:
 8002e94:	b508      	push	{r3, lr}
 8002e96:	f8d0 02c0 	ldr.w	r0, [r0, #704]	; 0x2c0
 8002e9a:	f7fd fc83 	bl	80007a4 <HAL_PCD_Start>
 8002e9e:	e8bd 4008 	ldmia.w	sp!, {r3, lr}
 8002ea2:	f7ff bf5b 	b.w	8002d5c <USBD_Get_USB_Status>

08002ea6 <USBD_LL_OpenEP>:
 8002ea6:	b510      	push	{r4, lr}
 8002ea8:	4614      	mov	r4, r2
 8002eaa:	f8d0 02c0 	ldr.w	r0, [r0, #704]	; 0x2c0
 8002eae:	461a      	mov	r2, r3
 8002eb0:	4623      	mov	r3, r4
 8002eb2:	f7fe f97f 	bl	80011b4 <HAL_PCD_EP_Open>
 8002eb6:	e8bd 4010 	ldmia.w	sp!, {r4, lr}
 8002eba:	f7ff bf4f 	b.w	8002d5c <USBD_Get_USB_Status>

08002ebe <USBD_LL_CloseEP>:
 8002ebe:	b508      	push	{r3, lr}
 8002ec0:	f8d0 02c0 	ldr.w	r0, [r0, #704]	; 0x2c0
 8002ec4:	f7fe f9a6 	bl	8001214 <HAL_PCD_EP_Close>
 8002ec8:	e8bd 4008 	ldmia.w	sp!, {r3, lr}
 8002ecc:	f7ff bf46 	b.w	8002d5c <USBD_Get_USB_Status>

08002ed0 <USBD_LL_StallEP>:
 8002ed0:	b508      	push	{r3, lr}
 8002ed2:	f8d0 02c0 	ldr.w	r0, [r0, #704]	; 0x2c0
 8002ed6:	f7fe f9f7 	bl	80012c8 <HAL_PCD_EP_SetStall>
 8002eda:	e8bd 4008 	ldmia.w	sp!, {r3, lr}
 8002ede:	f7ff bf3d 	b.w	8002d5c <USBD_Get_USB_Status>

08002ee2 <USBD_LL_ClearStallEP>:
 8002ee2:	b508      	push	{r3, lr}
 8002ee4:	f8d0 02c0 	ldr.w	r0, [r0, #704]	; 0x2c0
 8002ee8:	f7fe fa22 	bl	8001330 <HAL_PCD_EP_ClrStall>
 8002eec:	e8bd 4008 	ldmia.w	sp!, {r3, lr}
 8002ef0:	f7ff bf34 	b.w	8002d5c <USBD_Get_USB_Status>

08002ef4 <USBD_LL_IsStallEP>:
 8002ef4:	2228      	movs	r2, #40	; 0x28
 8002ef6:	f011 0f80 	tst.w	r1, #128	; 0x80
 8002efa:	f8d0 32c0 	ldr.w	r3, [r0, #704]	; 0x2c0
 8002efe:	bf1b      	ittet	ne
 8002f00:	f001 017f 	andne.w	r1, r1, #127	; 0x7f
 8002f04:	fb01 2202 	mlane	r2, r1, r2, r2
 8002f08:	fb02 3301 	mlaeq	r3, r2, r1, r3
 8002f0c:	189b      	addne	r3, r3, r2
 8002f0e:	bf14      	ite	ne
 8002f10:	7898      	ldrbne	r0, [r3, #2]
 8002f12:	f893 016a 	ldrbeq.w	r0, [r3, #362]	; 0x16a
 8002f16:	4770      	bx	lr

08002f18 <USBD_LL_SetUSBAddress>:
 8002f18:	b508      	push	{r3, lr}
 8002f1a:	f8d0 02c0 	ldr.w	r0, [r0, #704]	; 0x2c0
 8002f1e:	f7fd fc5a 	bl	80007d6 <HAL_PCD_SetAddress>
 8002f22:	e8bd 4008 	ldmia.w	sp!, {r3, lr}
 8002f26:	f7ff bf19 	b.w	8002d5c <USBD_Get_USB_Status>

08002f2a <USBD_LL_Transmit>:
 8002f2a:	b508      	push	{r3, lr}
 8002f2c:	f8d0 02c0 	ldr.w	r0, [r0, #704]	; 0x2c0
 8002f30:	f7fe f9b0 	bl	8001294 <HAL_PCD_EP_Transmit>
 8002f34:	e8bd 4008 	ldmia.w	sp!, {r3, lr}
 8002f38:	f7ff bf10 	b.w	8002d5c <USBD_Get_USB_Status>

08002f3c <USBD_LL_PrepareReceive>:
 8002f3c:	b508      	push	{r3, lr}
 8002f3e:	f8d0 02c0 	ldr.w	r0, [r0, #704]	; 0x2c0
 8002f42:	f7fe f990 	bl	8001266 <HAL_PCD_EP_Receive>
 8002f46:	e8bd 4008 	ldmia.w	sp!, {r3, lr}
 8002f4a:	f7ff bf07 	b.w	8002d5c <USBD_Get_USB_Status>
	...

08002f50 <USBD_static_malloc>:
 8002f50:	4800      	ldr	r0, [pc, #0]	; (8002f54 <USBD_static_malloc+0x4>)
 8002f52:	4770      	bx	lr
 8002f54:	2000093c 	.word	0x2000093c

08002f58 <USBD_static_free>:
 8002f58:	4770      	bx	lr

08002f5a <HAL_PCDEx_SetConnectionState>:
 8002f5a:	4770      	bx	lr

08002f5c <memset>:
 8002f5c:	4603      	mov	r3, r0
 8002f5e:	4402      	add	r2, r0
 8002f60:	4293      	cmp	r3, r2
 8002f62:	d100      	bne.n	8002f66 <memset+0xa>
 8002f64:	4770      	bx	lr
 8002f66:	f803 1b01 	strb.w	r1, [r3], #1
 8002f6a:	e7f9      	b.n	8002f60 <memset+0x4>

08002f6c <__libc_init_array>:
 8002f6c:	b570      	push	{r4, r5, r6, lr}
 8002f6e:	2600      	movs	r6, #0
 8002f70:	4d0c      	ldr	r5, [pc, #48]	; (8002fa4 <__libc_init_array+0x38>)
 8002f72:	4c0d      	ldr	r4, [pc, #52]	; (8002fa8 <__libc_init_array+0x3c>)
 8002f74:	1b64      	subs	r4, r4, r5
 8002f76:	10a4      	asrs	r4, r4, #2
 8002f78:	42a6      	cmp	r6, r4
 8002f7a:	d109      	bne.n	8002f90 <__libc_init_array+0x24>
 8002f7c:	f000 f81a 	bl	8002fb4 <_init>
 8002f80:	2600      	movs	r6, #0
 8002f82:	4d0a      	ldr	r5, [pc, #40]	; (8002fac <__libc_init_array+0x40>)
 8002f84:	4c0a      	ldr	r4, [pc, #40]	; (8002fb0 <__libc_init_array+0x44>)
 8002f86:	1b64      	subs	r4, r4, r5
 8002f88:	10a4      	asrs	r4, r4, #2
 8002f8a:	42a6      	cmp	r6, r4
 8002f8c:	d105      	bne.n	8002f9a <__libc_init_array+0x2e>
 8002f8e:	bd70      	pop	{r4, r5, r6, pc}
 8002f90:	f855 3b04 	ldr.w	r3, [r5], #4
 8002f94:	4798      	blx	r3
 8002f96:	3601      	adds	r6, #1
 8002f98:	e7ee      	b.n	8002f78 <__libc_init_array+0xc>
 8002f9a:	f855 3b04 	ldr.w	r3, [r5], #4
 8002f9e:	4798      	blx	r3
 8002fa0:	3601      	adds	r6, #1
 8002fa2:	e7f2      	b.n	8002f8a <__libc_init_array+0x1e>
 8002fa4:	08003030 	.word	0x08003030
 8002fa8:	08003030 	.word	0x08003030
 8002fac:	08003030 	.word	0x08003030
 8002fb0:	08003034 	.word	0x08003034

08002fb4 <_init>:
 8002fb4:	b5f8      	push	{r3, r4, r5, r6, r7, lr}
 8002fb6:	bf00      	nop
 8002fb8:	bcf8      	pop	{r3, r4, r5, r6, r7}
 8002fba:	bc08      	pop	{r3}
 8002fbc:	469e      	mov	lr, r3
 8002fbe:	4770      	bx	lr

08002fc0 <_fini>:
 8002fc0:	b5f8      	push	{r3, r4, r5, r6, r7, lr}
 8002fc2:	bf00      	nop
 8002fc4:	bcf8      	pop	{r3, r4, r5, r6, r7}
 8002fc6:	bc08      	pop	{r3}
 8002fc8:	469e      	mov	lr, r3
 8002fca:	4770      	bx	lr
